   1               		.file	"FuncGen.c"
   2               	__SREG__ = 0x3f
   3               	__SP_H__ = 0x3e
   4               	__SP_L__ = 0x3d
   5               	__CCP__  = 0x34
   6               	__tmp_reg__ = 0
   7               	__zero_reg__ = 1
  15               	.Ltext0:
  16               	.global	CmdAnalysis
  18               	CmdAnalysis:
  19               	.LFB3:
  20               	.LM1:
  21               	.LVL0:
  22               	/* prologue: function */
  23               	/* frame size = 0 */
  24 0000 FB01      		movw r30,r22
  25 0002 DA01      		movw r26,r20
  26 0004 00C0      		rjmp .L2
  27               	.LVL1:
  28               	.L5:
  29               	.LM2:
  30 0006 9817      		cp r25,r24
  31 0008 01F4      		brne .L3
  32               	.LM3:
  33 000a 8C91      		ld r24,X
  34               	.LVL2:
  35 000c 8093 0000 		sts SysState+1,r24
  36               	.LBB138:
  37               	.LM4:
  38 0010 3196      		adiw r30,1
  39               	/* #APP */
  40               	 ;  432 "FuncGen.c" 1
  41 0012 8491      		lpm r24, Z
  42               		
  43               	 ;  0 "" 2
  44               	.LVL3:
  45               	/* #NOAPP */
  46               	.LBE138:
  47 0014 8C93      		st X,r24
  48               	.LBB139:
  49               	.LM5:
  50 0016 3196      		adiw r30,1
  51               	.LVL4:
  52               	.LBE139:
  53               	/* #APP */
  54               	 ;  433 "FuncGen.c" 1
  55 0018 2591      		lpm r18, Z+
  56 001a 3491      		lpm r19, Z
  57               		
  58               	 ;  0 "" 2
  59               	/* #NOAPP */
  60 001c 00C0      		rjmp .L4
  61               	.LVL5:
  62               	.L3:
  63               	.LM6:
  64 001e 3496      		adiw r30,4
  65               	.LVL6:
  66               	.L2:
  67               	.LBB140:
  68               	.LM7:
  69               	/* #APP */
  70               	 ;  428 "FuncGen.c" 1
  71 0020 9491      		lpm r25, Z
  72               		
  73               	 ;  0 "" 2
  74               	/* #NOAPP */
  75               	.LBE140:
  76 0022 9923      		tst r25
  77 0024 01F4      		brne .L5
  78 0026 20E0      		ldi r18,lo8(gs(Dummy))
  79 0028 30E0      		ldi r19,hi8(gs(Dummy))
  80               	.LVL7:
  81               	.L4:
  82               	.LM8:
  83 002a C901      		movw r24,r18
  84               	.LVL8:
  85               	/* epilogue start */
  86 002c 0895      		ret
  87               	.LFE3:
  89               	.global	DoCmdProcessing
  91               	DoCmdProcessing:
  92               	.LFB2:
  93               	.LM9:
  94               	/* prologue: function */
  95               	/* frame size = 0 */
  96               	.LM10:
  97 002e 9091 0000 		lds r25,KeyCode
  98 0032 9923      		tst r25
  99 0034 01F0      		breq .L9
 100               	.LBB141:
 101               	.LM11:
 102 0036 8091 0000 		lds r24,SysState
 103 003a E82F      		mov r30,r24
 104               	.LVL9:
 105 003c F0E0      		ldi r31,lo8(0)
 106               	.LVL10:
 107 003e EE0F      		lsl r30
 108 0040 FF1F      		rol r31
 109               	.LVL11:
 110 0042 E050      		subi r30,lo8(-(CmdIndex))
 111 0044 F040      		sbci r31,hi8(-(CmdIndex))
 112               	/* #APP */
 113               	 ;  412 "FuncGen.c" 1
 114 0046 6591      		lpm r22, Z+
 115 0048 7491      		lpm r23, Z
 116               		
 117               	 ;  0 "" 2
 118               	.LVL12:
 119               	/* #NOAPP */
 120               	.LBE141:
 121               	.LM12:
 122 004a 892F      		mov r24,r25
 123 004c 40E0      		ldi r20,lo8(SysState)
 124 004e 50E0      		ldi r21,hi8(SysState)
 125 0050 0E94 0000 		call CmdAnalysis
 126               	.LVL13:
 127 0054 FC01      		movw r30,r24
 128 0056 0995      		icall
 129               	.LM13:
 130 0058 1092 0000 		sts KeyCode,__zero_reg__
 131               	.L9:
 132 005c 0895      		ret
 133               	.LFE2:
 135               	.global	ExitSVParam
 137               	ExitSVParam:
 138               	.LFB12:
 139               	.LM14:
 140               	/* prologue: function */
 141               	/* frame size = 0 */
 142               	.LBB142:
 143               	.LM15:
 144 005e 8091 0000 		lds r24,miniDDS
 145 0062 90E0      		ldi r25,lo8(0)
 146               	.LVL14:
 147 0064 880F      		lsl r24
 148 0066 991F      		rol r25
 149               	.LVL15:
 150 0068 8050      		subi r24,lo8(-(InitFuncTab))
 151 006a 9040      		sbci r25,hi8(-(InitFuncTab))
 152 006c FC01      		movw r30,r24
 153               	/* #APP */
 154               	 ;  616 "FuncGen.c" 1
 155 006e 2591      		lpm r18, Z+
 156 0070 3491      		lpm r19, Z
 157               		
 158               	 ;  0 "" 2
 159               	.LVL16:
 160               	/* #NOAPP */
 161               	.LBE142:
 162 0072 F901      		movw r30,r18
 163 0074 0995      		icall
 164               	.LVL17:
 165               	/* epilogue start */
 166               	.LM16:
 167 0076 0895      		ret
 168               	.LFE12:
 170               	.global	EscapeMode
 172               	EscapeMode:
 173               	.LFB15:
 174               	.LM17:
 175               	/* prologue: function */
 176               	/* frame size = 0 */
 177               	.LBB143:
 178               	.LM18:
 179 0078 8091 0000 		lds r24,miniDDS
 180 007c 90E0      		ldi r25,lo8(0)
 181               	.LVL18:
 182 007e 880F      		lsl r24
 183 0080 991F      		rol r25
 184               	.LVL19:
 185 0082 8050      		subi r24,lo8(-(InitFuncTab))
 186 0084 9040      		sbci r25,hi8(-(InitFuncTab))
 187 0086 FC01      		movw r30,r24
 188               	/* #APP */
 189               	 ;  640 "FuncGen.c" 1
 190 0088 2591      		lpm r18, Z+
 191 008a 3491      		lpm r19, Z
 192               		
 193               	 ;  0 "" 2
 194               	.LVL20:
 195               	/* #NOAPP */
 196               	.LBE143:
 197 008c F901      		movw r30,r18
 198 008e 0995      		icall
 199               	.LVL21:
 200               	/* epilogue start */
 201               	.LM19:
 202 0090 0895      		ret
 203               	.LFE15:
 205               	.global	Dummy
 207               	Dummy:
 208               	.LFB16:
 209               	.LM20:
 210               	/* prologue: function */
 211               	/* frame size = 0 */
 212               	/* epilogue start */
 213               	.LM21:
 214 0092 0895      		ret
 215               	.LFE16:
 217               	.global	NumInputSetup
 219               	NumInputSetup:
 220               	.LFB29:
 221               	.LM22:
 222               	.LVL22:
 223               	/* prologue: function */
 224               	/* frame size = 0 */
 225               	.LM23:
 226 0094 96E0      		ldi r25,lo8(6)
 227 0096 9093 0000 		sts SysState,r25
 228               	.LM24:
 229 009a 8093 0000 		sts NumInput+2,r24
 230               	.LM25:
 231 009e 6093 0000 		sts NumInput+3,r22
 232               	.LM26:
 233 00a2 80E0      		ldi r24,lo8(InputBuf)
 234 00a4 90E0      		ldi r25,hi8(InputBuf)
 235               	.LVL23:
 236 00a6 9093 0000 		sts (NumInput)+1,r25
 237 00aa 8093 0000 		sts NumInput,r24
 238               	.LM27:
 239 00ae 1092 0000 		sts NumInput+4,__zero_reg__
 240               	.LM28:
 241 00b2 1092 0000 		sts NumInput+5,__zero_reg__
 242               	.LM29:
 243 00b6 1092 0000 		sts NumInput+6,__zero_reg__
 244               	.LM30:
 245 00ba 4093 0000 		sts NumInput+12,r20
 246               	.LM31:
 247 00be 3093 0000 		sts (NumInput+13)+1,r19
 248 00c2 2093 0000 		sts NumInput+13,r18
 249 00c6 90E0      		ldi r25,lo8(0)
 250               	.LVL24:
 251               	.LBB144:
 252               	.LBB145:
 253               	.LM32:
 254 00c8 2FE5      		ldi r18,lo8(95)
 255               	.LVL25:
 256 00ca 00C0      		rjmp .L17
 257               	.L18:
 258 00cc E091 0000 		lds r30,NumInput
 259 00d0 F091 0000 		lds r31,(NumInput)+1
 260 00d4 E90F      		add r30,r25
 261 00d6 F11D      		adc r31,__zero_reg__
 262 00d8 2083      		st Z,r18
 263               	.LM33:
 264 00da 9F5F      		subi r25,lo8(-(1))
 265               	.L17:
 266               	.LM34:
 267 00dc 8091 0000 		lds r24,NumInput+3
 268 00e0 9817      		cp r25,r24
 269 00e2 00F0      		brlo .L18
 270               	/* epilogue start */
 271               	.LBE145:
 272               	.LBE144:
 273               	.LM35:
 274 00e4 0895      		ret
 275               	.LFE29:
 277               	.global	UnitButton
 279               	UnitButton:
 280               	.LFB32:
 281               	.LM36:
 282               	/* prologue: function */
 283               	/* frame size = 0 */
 284               	.LM37:
 285 00e6 8091 0000 		lds r24,NumInput+4
 286 00ea 8823      		tst r24
 287 00ec 01F4      		brne .L21
 288               	.LM38:
 289 00ee 8DE0      		ldi r24,lo8(13)
 290 00f0 00C0      		rjmp .L24
 291               	.L21:
 292               	.LM39:
 293 00f2 8091 0000 		lds r24,KeyCodeBuf
 294               	.L24:
 295 00f6 8093 0000 		sts NumInput+11,r24
 296               	.LM40:
 297 00fa 8091 0000 		lds r24,NumInput+12
 298 00fe 8093 0000 		sts SysState,r24
 299               	.LM41:
 300 0102 E091 0000 		lds r30,NumInput+13
 301 0106 F091 0000 		lds r31,(NumInput+13)+1
 302 010a 0995      		icall
 303               	/* epilogue start */
 304               	.LM42:
 305 010c 0895      		ret
 306               	.LFE32:
 308               	.global	ClearDisp
 310               	ClearDisp:
 311               	.LFB34:
 312               	.LM43:
 313               	/* prologue: function */
 314               	/* frame size = 0 */
 315               	.LM44:
 316 010e 80E0      		ldi r24,lo8(0)
 317 0110 90E0      		ldi r25,hi8(0)
 318               	.LBB146:
 319               	.LBB147:
 320               	.LM45:
 321 0112 20E2      		ldi r18,lo8(32)
 322               	.L26:
 323 0114 FC01      		movw r30,r24
 324 0116 E050      		subi r30,lo8(-(DispBuf))
 325 0118 F040      		sbci r31,hi8(-(DispBuf))
 326 011a 2083      		st Z,r18
 327 011c 0196      		adiw r24,1
 328               	.LM46:
 329 011e 8032      		cpi r24,32
 330 0120 9105      		cpc r25,__zero_reg__
 331 0122 01F4      		brne .L26
 332               	/* epilogue start */
 333               	.LBE147:
 334               	.LBE146:
 335               	.LM47:
 336 0124 0895      		ret
 337               	.LFE34:
 339               	.global	CalWholePart
 341               	CalWholePart:
 342               	.LFB36:
 343               	.LM48:
 344 0126 FF92      		push r15
 345 0128 0F93      		push r16
 346 012a 1F93      		push r17
 347 012c CF93      		push r28
 348 012e DF93      		push r29
 349               	/* prologue: function */
 350               	/* frame size = 0 */
 351               	.LM49:
 352 0130 8091 0000 		lds r24,NumInput+4
 353 0134 8823      		tst r24
 354 0136 01F0      		breq .L31
 355               	.LM50:
 356 0138 F090 0000 		lds r15,NumInput+3
 357 013c C091 0000 		lds r28,NumInput
 358 0140 D091 0000 		lds r29,(NumInput)+1
 359 0144 00E0      		ldi r16,lo8(0)
 360               	.LVL26:
 361 0146 60E0      		ldi r22,lo8(0)
 362 0148 70E0      		ldi r23,hi8(0)
 363 014a 80E0      		ldi r24,hlo8(0)
 364 014c 90E0      		ldi r25,hhi8(0)
 365               	.LVL27:
 366 014e 00C0      		rjmp .L32
 367               	.LVL28:
 368               	.L36:
 369               	.LM51:
 370 0150 1881      		ld r17,Y
 371               	.LM52:
 372 0152 1E32      		cpi r17,lo8(46)
 373 0154 01F0      		breq .L39
 374 0156 1F35      		cpi r17,lo8(95)
 375 0158 01F0      		breq .L35
 376               	.L38:
 377               	.LM53:
 378 015a 2AE0      		ldi r18,lo8(10)
 379 015c 30E0      		ldi r19,hi8(10)
 380 015e 40E0      		ldi r20,hlo8(10)
 381 0160 50E0      		ldi r21,hhi8(10)
 382 0162 0E94 0000 		call __mulsi3
 383               	.LVL29:
 384               	.LM54:
 385 0166 1F70      		andi r17,lo8(15)
 386 0168 610F      		add r22,r17
 387 016a 711D      		adc r23,__zero_reg__
 388 016c 811D      		adc r24,__zero_reg__
 389 016e 911D      		adc r25,__zero_reg__
 390               	.LVL30:
 391               	.L35:
 392               	.LM55:
 393 0170 0F5F      		subi r16,lo8(-(1))
 394 0172 2196      		adiw r28,1
 395               	.L32:
 396               	.LM56:
 397 0174 0F15      		cp r16,r15
 398 0176 00F0      		brlo .L36
 399               	.L39:
 400               	.LM57:
 401 0178 6093 0000 		sts NumInput+7,r22
 402 017c 7093 0000 		sts (NumInput+7)+1,r23
 403 0180 8093 0000 		sts (NumInput+7)+2,r24
 404 0184 9093 0000 		sts (NumInput+7)+3,r25
 405 0188 81E0      		ldi r24,lo8(1)
 406               	.L31:
 407               	/* epilogue start */
 408               	.LM58:
 409 018a DF91      		pop r29
 410 018c CF91      		pop r28
 411 018e 1F91      		pop r17
 412               	.LVL31:
 413 0190 0F91      		pop r16
 414               	.LVL32:
 415 0192 FF90      		pop r15
 416 0194 0895      		ret
 417               	.LFE36:
 419               	.global	CalValue
 421               	CalValue:
 422               	.LFB37:
 423               	.LM59:
 424 0196 EF92      		push r14
 425 0198 FF92      		push r15
 426 019a 0F93      		push r16
 427 019c 1F93      		push r17
 428 019e CF93      		push r28
 429 01a0 DF93      		push r29
 430               	/* prologue: function */
 431               	/* frame size = 0 */
 432               	.LM60:
 433 01a2 8091 0000 		lds r24,NumInput+4
 434 01a6 8823      		tst r24
 435 01a8 01F4      		brne .+2
 436 01aa 00C0      		rjmp .L41
 437               	.LM61:
 438 01ac E090 0000 		lds r14,NumInput+3
 439 01b0 C091 0000 		lds r28,NumInput
 440 01b4 D091 0000 		lds r29,(NumInput)+1
 441 01b8 FF24      		clr r15
 442               	.LVL33:
 443 01ba 20E0      		ldi r18,lo8(0)
 444 01bc 30E0      		ldi r19,hi8(0)
 445 01be 40E0      		ldi r20,hlo8(0)
 446 01c0 50E0      		ldi r21,hhi8(0)
 447               	.LVL34:
 448 01c2 00E0      		ldi r16,lo8(0)
 449               	.LVL35:
 450 01c4 00C0      		rjmp .L42
 451               	.LVL36:
 452               	.L48:
 453               	.LM62:
 454 01c6 FF20      		tst r15
 455 01c8 01F0      		breq .L43
 456               	.LM63:
 457 01ca 802F      		mov r24,r16
 458 01cc 90E0      		ldi r25,lo8(0)
 459 01ce 8F19      		sub r24,r15
 460 01d0 9109      		sbc r25,__zero_reg__
 461               	.LVL37:
 462 01d2 0497      		sbiw r24,4
 463 01d4 04F4      		brge .L44
 464               	.LVL38:
 465               	.L43:
 466               	.LM64:
 467 01d6 1881      		ld r17,Y
 468               	.LM65:
 469 01d8 1E32      		cpi r17,lo8(46)
 470 01da 01F0      		breq .L46
 471 01dc 1F35      		cpi r17,lo8(95)
 472 01de 01F4      		brne .L55
 473 01e0 00C0      		rjmp .L47
 474               	.L46:
 475               	.LM66:
 476 01e2 FF20      		tst r15
 477 01e4 01F0      		breq .+2
 478 01e6 00C0      		rjmp .L41
 479 01e8 F02E      		mov r15,r16
 480 01ea 00C0      		rjmp .L47
 481               	.L55:
 482               	.LM67:
 483 01ec CA01      		movw r24,r20
 484 01ee B901      		movw r22,r18
 485 01f0 2AE0      		ldi r18,lo8(10)
 486 01f2 30E0      		ldi r19,hi8(10)
 487 01f4 40E0      		ldi r20,hlo8(10)
 488 01f6 50E0      		ldi r21,hhi8(10)
 489               	.LVL39:
 490 01f8 0E94 0000 		call __mulsi3
 491 01fc 9B01      		movw r18,r22
 492 01fe AC01      		movw r20,r24
 493               	.LVL40:
 494               	.LM68:
 495 0200 1F70      		andi r17,lo8(15)
 496 0202 210F      		add r18,r17
 497 0204 311D      		adc r19,__zero_reg__
 498 0206 411D      		adc r20,__zero_reg__
 499 0208 511D      		adc r21,__zero_reg__
 500               	.L47:
 501               	.LM69:
 502 020a 0F5F      		subi r16,lo8(-(1))
 503 020c 2196      		adiw r28,1
 504               	.L42:
 505               	.LM70:
 506 020e 0E15      		cp r16,r14
 507 0210 00F0      		brlo .L48
 508               	.LM71:
 509 0212 FF20      		tst r15
 510 0214 01F0      		breq .L49
 511               	.LVL41:
 512               	.L44:
 513               	.LM72:
 514 0216 0150      		subi r16,lo8(-(-1))
 515 0218 0F19      		sub r16,r15
 516 021a 0093 0000 		sts NumInput+6,r16
 517               	.L49:
 518               	.LM73:
 519 021e 8091 0000 		lds r24,NumInput+6
 520 0222 8823      		tst r24
 521 0224 01F4      		brne .L50
 522 0226 2933      		cpi r18,lo8(4294969)
 523 0228 99E8      		ldi r25,hi8(4294969)
 524 022a 3907      		cpc r19,r25
 525 022c 91E4      		ldi r25,hlo8(4294969)
 526 022e 4907      		cpc r20,r25
 527 0230 90E0      		ldi r25,hhi8(4294969)
 528 0232 5907      		cpc r21,r25
 529               	.LVL42:
 530 0234 00F4      		brsh .L41
 531               	.LVL43:
 532               	.L50:
 533               	.LM74:
 534 0236 13E0      		ldi r17,lo8(3)
 535               	.LVL44:
 536 0238 181B      		sub r17,r24
 537 023a 00C0      		rjmp .L51
 538               	.L52:
 539               	.LM75:
 540 023c CA01      		movw r24,r20
 541 023e B901      		movw r22,r18
 542 0240 2AE0      		ldi r18,lo8(10)
 543 0242 30E0      		ldi r19,hi8(10)
 544 0244 40E0      		ldi r20,hlo8(10)
 545 0246 50E0      		ldi r21,hhi8(10)
 546               	.LVL45:
 547 0248 0E94 0000 		call __mulsi3
 548 024c 9B01      		movw r18,r22
 549 024e AC01      		movw r20,r24
 550               	.LVL46:
 551               	.LM76:
 552 0250 1150      		subi r17,lo8(-(-1))
 553               	.L51:
 554               	.LM77:
 555 0252 1123      		tst r17
 556 0254 01F4      		brne .L52
 557               	.LM78:
 558 0256 2093 0000 		sts NumInput+7,r18
 559 025a 3093 0000 		sts (NumInput+7)+1,r19
 560 025e 4093 0000 		sts (NumInput+7)+2,r20
 561 0262 5093 0000 		sts (NumInput+7)+3,r21
 562 0266 81E0      		ldi r24,lo8(1)
 563 0268 00C0      		rjmp .L53
 564               	.LVL47:
 565               	.L41:
 566               	.LM79:
 567 026a 80E0      		ldi r24,lo8(0)
 568               	.LVL48:
 569               	.L53:
 570               	/* epilogue start */
 571               	.LM80:
 572 026c DF91      		pop r29
 573 026e CF91      		pop r28
 574 0270 1F91      		pop r17
 575               	.LVL49:
 576 0272 0F91      		pop r16
 577               	.LVL50:
 578 0274 FF90      		pop r15
 579               	.LVL51:
 580 0276 EF90      		pop r14
 581 0278 0895      		ret
 582               	.LFE37:
 584               	.global	ClearInputBuf
 586               	ClearInputBuf:
 587               	.LFB41:
 588               	.LM81:
 589               	/* prologue: function */
 590               	/* frame size = 0 */
 591               	.LM82:
 592 027a 90E0      		ldi r25,lo8(0)
 593               	.LVL52:
 594               	.LM83:
 595 027c 2FE5      		ldi r18,lo8(95)
 596 027e 00C0      		rjmp .L57
 597               	.L58:
 598 0280 E091 0000 		lds r30,NumInput
 599 0284 F091 0000 		lds r31,(NumInput)+1
 600 0288 E90F      		add r30,r25
 601 028a F11D      		adc r31,__zero_reg__
 602 028c 2083      		st Z,r18
 603               	.LM84:
 604 028e 9F5F      		subi r25,lo8(-(1))
 605               	.L57:
 606               	.LM85:
 607 0290 8091 0000 		lds r24,NumInput+3
 608 0294 9817      		cp r25,r24
 609 0296 00F0      		brlo .L58
 610               	/* epilogue start */
 611               	.LM86:
 612 0298 0895      		ret
 613               	.LFE41:
 615               	.global	DisplayInputBuf
 617               	DisplayInputBuf:
 618               	.LFB42:
 619               	.LM87:
 620 029a CF93      		push r28
 621 029c DF93      		push r29
 622               	/* prologue: function */
 623               	/* frame size = 0 */
 624               	.LM88:
 625 029e 9091 0000 		lds r25,NumInput+3
 626               	.LM89:
 627 02a2 8091 0000 		lds r24,NumInput+2
 628 02a6 A82F      		mov r26,r24
 629 02a8 B0E0      		ldi r27,lo8(0)
 630 02aa C091 0000 		lds r28,NumInput
 631 02ae D091 0000 		lds r29,(NumInput)+1
 632 02b2 20E0      		ldi r18,lo8(0)
 633 02b4 30E0      		ldi r19,hi8(0)
 634               	.LM90:
 635 02b6 AD01      		movw r20,r26
 636 02b8 00C0      		rjmp .L61
 637               	.L62:
 638 02ba F901      		movw r30,r18
 639 02bc E40F      		add r30,r20
 640 02be F51F      		adc r31,r21
 641               	.LM91:
 642 02c0 8991      		ld r24,Y+
 643 02c2 E050      		subi r30,lo8(-(DispBuf))
 644 02c4 F040      		sbci r31,hi8(-(DispBuf))
 645 02c6 8083      		st Z,r24
 646 02c8 2F5F      		subi r18,lo8(-(1))
 647 02ca 3F4F      		sbci r19,hi8(-(1))
 648               	.L61:
 649               	.LM92:
 650 02cc 2917      		cp r18,r25
 651 02ce 00F0      		brlo .L62
 652               	.LM93:
 653 02d0 8091 0000 		lds r24,NumInput+5
 654 02d4 8130      		cpi r24,lo8(1)
 655 02d6 01F0      		breq .L65
 656 02d8 8130      		cpi r24,lo8(1)
 657 02da 00F0      		brlo .L64
 658 02dc 8230      		cpi r24,lo8(2)
 659 02de 01F4      		brne .L63
 660 02e0 00C0      		rjmp .L69
 661               	.L64:
 662               	.LM94:
 663 02e2 A050      		subi r26,lo8(-(DispBuf-1))
 664 02e4 B040      		sbci r27,hi8(-(DispBuf-1))
 665 02e6 8FE5      		ldi r24,lo8(95)
 666 02e8 00C0      		rjmp .L68
 667               	.L65:
 668               	.LM95:
 669 02ea A050      		subi r26,lo8(-(DispBuf-1))
 670 02ec B040      		sbci r27,hi8(-(DispBuf-1))
 671 02ee 8DE2      		ldi r24,lo8(45)
 672 02f0 00C0      		rjmp .L68
 673               	.L69:
 674               	.LM96:
 675 02f2 A050      		subi r26,lo8(-(DispBuf-1))
 676 02f4 B040      		sbci r27,hi8(-(DispBuf-1))
 677 02f6 8BE2      		ldi r24,lo8(43)
 678               	.L68:
 679 02f8 8C93      		st X,r24
 680               	.L63:
 681               	.LM97:
 682 02fa 8091 0000 		lds r24,Flags
 683 02fe 8068      		ori r24,lo8(-128)
 684 0300 8093 0000 		sts Flags,r24
 685               	/* epilogue start */
 686               	.LM98:
 687 0304 DF91      		pop r29
 688 0306 CF91      		pop r28
 689 0308 0895      		ret
 690               	.LFE42:
 692               	.global	ToggleSign
 694               	ToggleSign:
 695               	.LFB38:
 696               	.LM99:
 697               	/* prologue: function */
 698               	/* frame size = 0 */
 699               	.LM100:
 700 030a 8091 0000 		lds r24,NumInput+5
 701 030e 8130      		cpi r24,lo8(1)
 702 0310 01F0      		breq .L71
 703               	.LM101:
 704 0312 81E0      		ldi r24,lo8(1)
 705 0314 00C0      		rjmp .L74
 706               	.L71:
 707               	.LM102:
 708 0316 82E0      		ldi r24,lo8(2)
 709               	.L74:
 710 0318 8093 0000 		sts NumInput+5,r24
 711               	.LM103:
 712 031c 0E94 0000 		call DisplayInputBuf
 713               	/* epilogue start */
 714               	.LM104:
 715 0320 0895      		ret
 716               	.LFE38:
 718               	.global	Digit
 720               	Digit:
 721               	.LFB35:
 722               	.LM105:
 723               	/* prologue: function */
 724               	/* frame size = 0 */
 725               	.LM106:
 726 0322 40E0      		ldi r20,lo8(0)
 727               	.LVL53:
 728 0324 00C0      		rjmp .L76
 729               	.LVL54:
 730               	.L77:
 731               	.LM107:
 732 0326 E091 0000 		lds r30,NumInput
 733 032a F091 0000 		lds r31,(NumInput)+1
 734 032e E20F      		add r30,r18
 735 0330 F31F      		adc r31,r19
 736 0332 8181      		ldd r24,Z+1
 737 0334 8083      		st Z,r24
 738               	.LM108:
 739 0336 4F5F      		subi r20,lo8(-(1))
 740               	.LVL55:
 741               	.L76:
 742               	.LM109:
 743 0338 242F      		mov r18,r20
 744 033a 30E0      		ldi r19,lo8(0)
 745 033c 8091 0000 		lds r24,NumInput+3
 746 0340 90E0      		ldi r25,lo8(0)
 747 0342 0197      		sbiw r24,1
 748 0344 2817      		cp r18,r24
 749 0346 3907      		cpc r19,r25
 750 0348 04F0      		brlt .L77
 751               	.LVL56:
 752               	.LM110:
 753 034a E091 0000 		lds r30,NumInput
 754 034e F091 0000 		lds r31,(NumInput)+1
 755 0352 E20F      		add r30,r18
 756 0354 F31F      		adc r31,r19
 757 0356 8091 0000 		lds r24,KeyParam
 758 035a 8083      		st Z,r24
 759               	.LM111:
 760 035c 8091 0000 		lds r24,NumInput+4
 761 0360 8F5F      		subi r24,lo8(-(1))
 762 0362 8093 0000 		sts NumInput+4,r24
 763               	.LM112:
 764 0366 9091 0000 		lds r25,NumInput+3
 765 036a 9817      		cp r25,r24
 766 036c 00F4      		brsh .L78
 767               	.LM113:
 768 036e 9093 0000 		sts NumInput+4,r25
 769               	.L78:
 770               	.LM114:
 771 0372 0E94 0000 		call DisplayInputBuf
 772               	.LVL57:
 773               	/* epilogue start */
 774               	.LM115:
 775 0376 0895      		ret
 776               	.LFE35:
 778               	.global	SetIncrement
 780               	SetIncrement:
 781               	.LFB27:
 782               	.LM116:
 783               	/* prologue: function */
 784               	/* frame size = 0 */
 785               	.LM117:
 786 0378 8091 0000 		lds r24,miniDDS
 787 037c 8823      		tst r24
 788 037e 01F4      		brne .L85
 789               	.LM118:
 790 0380 80E0      		ldi r24,lo8(0)
 791 0382 90E0      		ldi r25,hi8(0)
 792               	.LBB148:
 793               	.LBB149:
 794               	.LBB150:
 795               	.LBB151:
 796               	.LM119:
 797 0384 20E2      		ldi r18,lo8(32)
 798               	.L82:
 799 0386 FC01      		movw r30,r24
 800 0388 E050      		subi r30,lo8(-(DispBuf))
 801 038a F040      		sbci r31,hi8(-(DispBuf))
 802 038c 2083      		st Z,r18
 803 038e 0196      		adiw r24,1
 804               	.LM120:
 805 0390 8032      		cpi r24,32
 806 0392 9105      		cpc r25,__zero_reg__
 807 0394 01F4      		brne .L82
 808 0396 80E0      		ldi r24,lo8(0)
 809 0398 90E0      		ldi r25,hi8(0)
 810 039a 00C0      		rjmp .L83
 811               	.LVL58:
 812               	.L84:
 813               	.LBE151:
 814               	.LBE150:
 815               	.LBE149:
 816               	.LBE148:
 817               	.LBB152:
 818               	.LBB153:
 819               	.LM121:
 820 039c E32F      		mov r30,r19
 821 039e F0E0      		ldi r31,lo8(0)
 822 03a0 E050      		subi r30,lo8(-(DispBuf))
 823 03a2 F040      		sbci r31,hi8(-(DispBuf))
 824 03a4 2083      		st Z,r18
 825               	.L83:
 826 03a6 382F      		mov r19,r24
 827               	.LBB154:
 828               	.LM122:
 829 03a8 FC01      		movw r30,r24
 830 03aa E050      		subi r30,lo8(-(SetFreqPeriodStep))
 831 03ac F040      		sbci r31,hi8(-(SetFreqPeriodStep))
 832               	/* #APP */
 833               	 ;  2641 "FuncGen.c" 1
 834 03ae 2491      		lpm r18, Z
 835               		
 836               	 ;  0 "" 2
 837               	/* #NOAPP */
 838 03b0 0196      		adiw r24,1
 839               	.LBE154:
 840 03b2 2223      		tst r18
 841 03b4 01F4      		brne .L84
 842               	.LBE153:
 843               	.LBE152:
 844               	.LM123:
 845 03b6 81E1      		ldi r24,lo8(17)
 846 03b8 68E0      		ldi r22,lo8(8)
 847 03ba 40E0      		ldi r20,lo8(0)
 848 03bc 20E0      		ldi r18,lo8(gs(IncInputHandle))
 849 03be 30E0      		ldi r19,hi8(gs(IncInputHandle))
 850               	.LVL59:
 851 03c0 0E94 0000 		call NumInputSetup
 852               	.LVL60:
 853               	.LM124:
 854 03c4 0E94 0000 		call Digit
 855               	.LM125:
 856 03c8 0E94 0000 		call DisplayInputBuf
 857               	.L85:
 858 03cc 0895      		ret
 859               	.LFE27:
 861               	.global	ShowMode
 863               	ShowMode:
 864               	.LFB52:
 865               	.LM126:
 866               	/* prologue: function */
 867               	/* frame size = 0 */
 868               	.LM127:
 869 03ce 80E0      		ldi r24,lo8(0)
 870 03d0 90E0      		ldi r25,hi8(0)
 871               	.LBB155:
 872               	.LBB156:
 873               	.LBB157:
 874               	.LBB158:
 875               	.LM128:
 876 03d2 20E2      		ldi r18,lo8(32)
 877               	.L88:
 878 03d4 FC01      		movw r30,r24
 879 03d6 E050      		subi r30,lo8(-(DispBuf))
 880 03d8 F040      		sbci r31,hi8(-(DispBuf))
 881 03da 2083      		st Z,r18
 882 03dc 0196      		adiw r24,1
 883               	.LM129:
 884 03de 8032      		cpi r24,32
 885 03e0 9105      		cpc r25,__zero_reg__
 886 03e2 01F4      		brne .L88
 887 03e4 80E0      		ldi r24,lo8(0)
 888 03e6 90E0      		ldi r25,hi8(0)
 889 03e8 00C0      		rjmp .L89
 890               	.LVL61:
 891               	.L90:
 892               	.LBE158:
 893               	.LBE157:
 894               	.LBE156:
 895               	.LBE155:
 896               	.LBB159:
 897               	.LBB160:
 898               	.LM130:
 899 03ea E32F      		mov r30,r19
 900 03ec F0E0      		ldi r31,lo8(0)
 901 03ee E050      		subi r30,lo8(-(DispBuf))
 902 03f0 F040      		sbci r31,hi8(-(DispBuf))
 903 03f2 2083      		st Z,r18
 904               	.L89:
 905 03f4 382F      		mov r19,r24
 906               	.LBB161:
 907               	.LM131:
 908 03f6 FC01      		movw r30,r24
 909 03f8 E050      		subi r30,lo8(-(ModePrompt))
 910 03fa F040      		sbci r31,hi8(-(ModePrompt))
 911               	/* #APP */
 912               	 ;  2641 "FuncGen.c" 1
 913 03fc 2491      		lpm r18, Z
 914               		
 915               	 ;  0 "" 2
 916               	/* #NOAPP */
 917 03fe 0196      		adiw r24,1
 918               	.LBE161:
 919 0400 2223      		tst r18
 920 0402 01F4      		brne .L90
 921               	.LBE160:
 922               	.LBE159:
 923               	.LM132:
 924 0404 8091 0000 		lds r24,CurrMode
 925 0408 482F      		mov r20,r24
 926 040a 50E0      		ldi r21,lo8(0)
 927 040c 9A01      		movw r18,r20
 928               	.LVL62:
 929 040e 220F      		lsl r18
 930 0410 331F      		rol r19
 931 0412 CA01      		movw r24,r20
 932 0414 73E0      		ldi r23,3
 933 0416 880F      	1:	lsl r24
 934 0418 991F      		rol r25
 935 041a 7A95      		dec r23
 936 041c 01F4      		brne 1b
 937 041e 280F      		add r18,r24
 938 0420 391F      		adc r19,r25
 939 0422 2050      		subi r18,lo8(-(ModeNames))
 940 0424 3040      		sbci r19,hi8(-(ModeNames))
 941 0426 80E1      		ldi r24,lo8(16)
 942               	.LVL63:
 943 0428 00C0      		rjmp .L91
 944               	.LVL64:
 945               	.L92:
 946               	.LBB162:
 947               	.LBB163:
 948               	.LM133:
 949 042a E82F      		mov r30,r24
 950               	.LVL65:
 951 042c F0E0      		ldi r31,lo8(0)
 952 042e E050      		subi r30,lo8(-(DispBuf))
 953 0430 F040      		sbci r31,hi8(-(DispBuf))
 954 0432 9083      		st Z,r25
 955 0434 8F5F      		subi r24,lo8(-(1))
 956               	.L91:
 957 0436 F901      		movw r30,r18
 958               	.LVL66:
 959               	.LBB164:
 960               	.LM134:
 961 0438 2F5F      		subi r18,lo8(-(1))
 962 043a 3F4F      		sbci r19,hi8(-(1))
 963               	/* #APP */
 964               	 ;  2641 "FuncGen.c" 1
 965 043c 9491      		lpm r25, Z
 966               		
 967               	 ;  0 "" 2
 968               	/* #NOAPP */
 969               	.LBE164:
 970 043e 9923      		tst r25
 971 0440 01F4      		brne .L92
 972               	.LBE163:
 973               	.LBE162:
 974               	.LM135:
 975 0442 CA01      		movw r24,r20
 976               	.LVL67:
 977 0444 880F      		lsl r24
 978 0446 991F      		rol r25
 979 0448 880F      		lsl r24
 980 044a 991F      		rol r25
 981 044c 840F      		add r24,r20
 982 044e 951F      		adc r25,r21
 983 0450 8050      		subi r24,lo8(-(ModeIndex))
 984 0452 9040      		sbci r25,hi8(-(ModeIndex))
 985 0454 2DE1      		ldi r18,lo8(29)
 986               	.LVL68:
 987 0456 00C0      		rjmp .L93
 988               	.LVL69:
 989               	.L94:
 990               	.LBB165:
 991               	.LBB166:
 992               	.LM136:
 993 0458 E22F      		mov r30,r18
 994               	.LVL70:
 995 045a F0E0      		ldi r31,lo8(0)
 996 045c E050      		subi r30,lo8(-(DispBuf))
 997 045e F040      		sbci r31,hi8(-(DispBuf))
 998 0460 3083      		st Z,r19
 999 0462 2F5F      		subi r18,lo8(-(1))
 1000               	.LVL71:
 1001               	.L93:
 1002 0464 FC01      		movw r30,r24
 1003               	.LVL72:
 1004               	.LBB167:
 1005               	.LM137:
 1006 0466 0196      		adiw r24,1
 1007               	/* #APP */
 1008               	 ;  2641 "FuncGen.c" 1
 1009 0468 3491      		lpm r19, Z
 1010               		
 1011               	 ;  0 "" 2
 1012               	.LVL73:
 1013               	/* #NOAPP */
 1014               	.LBE167:
 1015 046a 3323      		tst r19
 1016 046c 01F4      		brne .L94
 1017               	.LBE166:
 1018               	.LBE165:
 1019               	.LM138:
 1020 046e 8091 0000 		lds r24,Flags
 1021               	.LVL74:
 1022 0472 8068      		ori r24,lo8(-128)
 1023 0474 8093 0000 		sts Flags,r24
 1024               	/* epilogue start */
 1025               	.LM139:
 1026 0478 0895      		ret
 1027               	.LFE52:
 1029               	.global	ChangeMode
 1031               	ChangeMode:
 1032               	.LFB13:
 1033               	.LM140:
 1034               	/* prologue: function */
 1035               	/* frame size = 0 */
 1036               	.LM141:
 1037 047a 1092 0000 		sts CurrMode,__zero_reg__
 1038               	.LM142:
 1039 047e 0E94 0000 		call ShowMode
 1040               	/* epilogue start */
 1041               	.LM143:
 1042 0482 0895      		ret
 1043               	.LFE13:
 1045               	.global	ShowType
 1047               	ShowType:
 1048               	.LFB57:
 1049               	.LM144:
 1050               	/* prologue: function */
 1051               	/* frame size = 0 */
 1052               	.LM145:
 1053 0484 9091 0000 		lds r25,miniDDS+15
 1054 0488 86E0      		ldi r24,lo8(6)
 1055 048a 989F      		mul r25,r24
 1056 048c C001      		movw r24,r0
 1057 048e 1124      		clr r1
 1058               	.LVL75:
 1059 0490 8050      		subi r24,lo8(-(WaveName))
 1060 0492 9040      		sbci r25,hi8(-(WaveName))
 1061 0494 2CE0      		ldi r18,lo8(12)
 1062               	.LVL76:
 1063 0496 00C0      		rjmp .L100
 1064               	.LVL77:
 1065               	.L101:
 1066               	.LBB168:
 1067               	.LBB169:
 1068               	.LM146:
 1069 0498 E22F      		mov r30,r18
 1070               	.LVL78:
 1071 049a F0E0      		ldi r31,lo8(0)
 1072 049c E050      		subi r30,lo8(-(DispBuf))
 1073 049e F040      		sbci r31,hi8(-(DispBuf))
 1074 04a0 3083      		st Z,r19
 1075 04a2 2F5F      		subi r18,lo8(-(1))
 1076               	.L100:
 1077 04a4 FC01      		movw r30,r24
 1078               	.LVL79:
 1079               	.LBB170:
 1080               	.LM147:
 1081 04a6 0196      		adiw r24,1
 1082               	/* #APP */
 1083               	 ;  2641 "FuncGen.c" 1
 1084 04a8 3491      		lpm r19, Z
 1085               		
 1086               	 ;  0 "" 2
 1087               	/* #NOAPP */
 1088               	.LBE170:
 1089 04aa 3323      		tst r19
 1090 04ac 01F4      		brne .L101
 1091               	/* epilogue start */
 1092               	.LBE169:
 1093               	.LBE168:
 1094               	.LM148:
 1095 04ae 0895      		ret
 1096               	.LFE57:
 1098               	.global	ShowFocus
 1100               	ShowFocus:
 1101               	.LFB58:
 1102               	.LM149:
 1103               	/* prologue: function */
 1104               	/* frame size = 0 */
 1105               	.LM150:
 1106 04b0 80E2      		ldi r24,lo8(32)
 1107 04b2 8093 0000 		sts DispBuf,r24
 1108               	.LM151:
 1109 04b6 8093 0000 		sts DispBuf+16,r24
 1110               	.LM152:
 1111 04ba 8093 0000 		sts DispBuf+25,r24
 1112               	.LM153:
 1113 04be E091 0000 		lds r30,CurrFocus
 1114 04c2 EC30      		cpi r30,lo8(12)
 1115 04c4 00F4      		brsh .L104
 1116               	.LBB171:
 1117               	.LM154:
 1118 04c6 F0E0      		ldi r31,lo8(0)
 1119 04c8 E050      		subi r30,lo8(-(FocusLocTab))
 1120 04ca F040      		sbci r31,hi8(-(FocusLocTab))
 1121               	/* #APP */
 1122               	 ;  1998 "FuncGen.c" 1
 1123 04cc E491      		lpm r30, Z
 1124               		
 1125               	 ;  0 "" 2
 1126               	.LVL80:
 1127               	/* #NOAPP */
 1128               	.LBE171:
 1129 04ce F0E0      		ldi r31,lo8(0)
 1130 04d0 8091 0000 		lds r24,TrigCtrl
 1131 04d4 E050      		subi r30,lo8(-(DispBuf))
 1132 04d6 F040      		sbci r31,hi8(-(DispBuf))
 1133               	.LVL81:
 1134 04d8 8083      		st Z,r24
 1135               	.L104:
 1136               	.LM155:
 1137 04da 8091 0000 		lds r24,Flags
 1138 04de 8068      		ori r24,lo8(-128)
 1139 04e0 8093 0000 		sts Flags,r24
 1140               	/* epilogue start */
 1141               	.LM156:
 1142 04e4 0895      		ret
 1143               	.LFE58:
 1145               	.global	SetOfs
 1147               	SetOfs:
 1148               	.LFB24:
 1149               	.LM157:
 1150               	/* prologue: function */
 1151               	/* frame size = 0 */
 1152               	.LM158:
 1153 04e6 8091 0000 		lds r24,CurrFocus
 1154 04ea 8230      		cpi r24,lo8(2)
 1155 04ec 01F0      		breq .L107
 1156               	.LM159:
 1157 04ee 82E0      		ldi r24,lo8(2)
 1158 04f0 8093 0000 		sts CurrFocus,r24
 1159               	.LM160:
 1160 04f4 0E94 0000 		call ShowFocus
 1161 04f8 0895      		ret
 1162               	.L107:
 1163               	.LM161:
 1164 04fa 8AE1      		ldi r24,lo8(26)
 1165 04fc 66E0      		ldi r22,lo8(6)
 1166 04fe 40E0      		ldi r20,lo8(0)
 1167 0500 20E0      		ldi r18,lo8(gs(OfsInputHandle))
 1168 0502 30E0      		ldi r19,hi8(gs(OfsInputHandle))
 1169 0504 0E94 0000 		call NumInputSetup
 1170               	.LM162:
 1171 0508 0E94 0000 		call DisplayInputBuf
 1172 050c 0895      		ret
 1173               	.LFE24:
 1175               	.global	SetAmp
 1177               	SetAmp:
 1178               	.LFB23:
 1179               	.LM163:
 1180               	/* prologue: function */
 1181               	/* frame size = 0 */
 1182               	.LM164:
 1183 050e 8091 0000 		lds r24,CurrFocus
 1184 0512 8130      		cpi r24,lo8(1)
 1185 0514 01F0      		breq .L111
 1186               	.LM165:
 1187 0516 81E0      		ldi r24,lo8(1)
 1188 0518 8093 0000 		sts CurrFocus,r24
 1189               	.LM166:
 1190 051c 0E94 0000 		call ShowFocus
 1191 0520 0895      		ret
 1192               	.L111:
 1193               	.LM167:
 1194 0522 81E1      		ldi r24,lo8(17)
 1195 0524 66E0      		ldi r22,lo8(6)
 1196 0526 40E0      		ldi r20,lo8(0)
 1197 0528 20E0      		ldi r18,lo8(gs(AmpInputHandle))
 1198 052a 30E0      		ldi r19,hi8(gs(AmpInputHandle))
 1199 052c 0E94 0000 		call NumInputSetup
 1200               	.LM168:
 1201 0530 0E94 0000 		call DisplayInputBuf
 1202 0534 0895      		ret
 1203               	.LFE23:
 1205               	.global	SetFreqCW
 1207               	SetFreqCW:
 1208               	.LFB18:
 1209               	.LM169:
 1210               	/* prologue: function */
 1211               	/* frame size = 0 */
 1212               	.LM170:
 1213 0536 8091 0000 		lds r24,CurrFocus
 1214 053a 8823      		tst r24
 1215 053c 01F0      		breq .L115
 1216               	.LM171:
 1217 053e 1092 0000 		sts CurrFocus,__zero_reg__
 1218               	.LM172:
 1219 0542 0E94 0000 		call ShowFocus
 1220 0546 0895      		ret
 1221               	.L115:
 1222               	.LM173:
 1223 0548 8091 0000 		lds r24,DispBuf
 1224 054c 8634      		cpi r24,lo8(70)
 1225 054e 01F4      		brne .L121
 1226               	.LM174:
 1227 0550 84E5      		ldi r24,lo8(84)
 1228 0552 00C0      		rjmp .L122
 1229               	.L121:
 1230               	.LM175:
 1231 0554 86E4      		ldi r24,lo8(70)
 1232               	.L122:
 1233 0556 8093 0000 		sts DispBuf,r24
 1234               	.LM176:
 1235 055a 8AE3      		ldi r24,lo8(58)
 1236 055c 8093 0000 		sts DispBuf+1,r24
 1237               	.LM177:
 1238 0560 83E0      		ldi r24,lo8(3)
 1239 0562 68E0      		ldi r22,lo8(8)
 1240 0564 40E0      		ldi r20,lo8(0)
 1241 0566 20E0      		ldi r18,lo8(gs(FreqInputHandle))
 1242 0568 30E0      		ldi r19,hi8(gs(FreqInputHandle))
 1243 056a 0E94 0000 		call NumInputSetup
 1244               	.LM178:
 1245 056e 0E94 0000 		call DisplayInputBuf
 1246 0572 0895      		ret
 1247               	.LFE18:
 1249               	.global	CalDeltaPhase
 1251               	CalDeltaPhase:
 1252               	.LFB65:
 1253               	.LM179:
 1254               	.LVL82:
 1255 0574 8F92      		push r8
 1256 0576 9F92      		push r9
 1257 0578 AF92      		push r10
 1258 057a BF92      		push r11
 1259 057c CF92      		push r12
 1260 057e DF92      		push r13
 1261 0580 EF92      		push r14
 1262 0582 FF92      		push r15
 1263 0584 0F93      		push r16
 1264 0586 1F93      		push r17
 1265               	/* prologue: function */
 1266               	/* frame size = 0 */
 1267 0588 FC01      		movw r30,r24
 1268 058a 4B01      		movw r8,r22
 1269 058c 7901      		movw r14,r18
 1270 058e 8A01      		movw r16,r20
 1271               	.LM180:
 1272 0590 6081      		ld r22,Z
 1273 0592 7181      		ldd r23,Z+1
 1274 0594 8281      		ldd r24,Z+2
 1275 0596 9381      		ldd r25,Z+3
 1276               	.LVL83:
 1277 0598 0E94 0000 		call __floatunsisf
 1278               	.LVL84:
 1279 059c 5B01      		movw r10,r22
 1280 059e 6C01      		movw r12,r24
 1281 05a0 C801      		movw r24,r16
 1282 05a2 B701      		movw r22,r14
 1283 05a4 20E0      		ldi r18,lo8(0x33800000)
 1284 05a6 30E0      		ldi r19,hi8(0x33800000)
 1285 05a8 40E8      		ldi r20,hlo8(0x33800000)
 1286 05aa 53E3      		ldi r21,hhi8(0x33800000)
 1287 05ac 0E94 0000 		call __mulsf3
 1288 05b0 9B01      		movw r18,r22
 1289 05b2 AC01      		movw r20,r24
 1290 05b4 C601      		movw r24,r12
 1291 05b6 B501      		movw r22,r10
 1292 05b8 0E94 0000 		call __divsf3
 1293 05bc 0E94 0000 		call __fixunssfsi
 1294 05c0 F401      		movw r30,r8
 1295 05c2 6083      		st Z,r22
 1296 05c4 7183      		std Z+1,r23
 1297 05c6 8283      		std Z+2,r24
 1298 05c8 9383      		std Z+3,r25
 1299               	/* epilogue start */
 1300               	.LM181:
 1301 05ca 1F91      		pop r17
 1302 05cc 0F91      		pop r16
 1303 05ce FF90      		pop r15
 1304 05d0 EF90      		pop r14
 1305               	.LVL85:
 1306 05d2 DF90      		pop r13
 1307 05d4 CF90      		pop r12
 1308 05d6 BF90      		pop r11
 1309 05d8 AF90      		pop r10
 1310 05da 9F90      		pop r9
 1311 05dc 8F90      		pop r8
 1312               	.LVL86:
 1313 05de 0895      		ret
 1314               	.LFE65:
 1316               	.global	PutStr_ROM
 1318               	PutStr_ROM:
 1319               	.LFB72:
 1320               	.LM182:
 1321               	.LVL87:
 1322               	/* prologue: function */
 1323               	/* frame size = 0 */
 1324 05e0 00C0      		rjmp .L126
 1325               	.LVL88:
 1326               	.L127:
 1327               	.LM183:
 1328 05e2 E82F      		mov r30,r24
 1329               	.LVL89:
 1330 05e4 F0E0      		ldi r31,lo8(0)
 1331 05e6 E050      		subi r30,lo8(-(DispBuf))
 1332 05e8 F040      		sbci r31,hi8(-(DispBuf))
 1333 05ea 9083      		st Z,r25
 1334 05ec 8F5F      		subi r24,lo8(-(1))
 1335               	.LVL90:
 1336               	.L126:
 1337 05ee FB01      		movw r30,r22
 1338               	.LVL91:
 1339               	.LBB172:
 1340               	.LM184:
 1341 05f0 6F5F      		subi r22,lo8(-(1))
 1342 05f2 7F4F      		sbci r23,hi8(-(1))
 1343               	/* #APP */
 1344               	 ;  2641 "FuncGen.c" 1
 1345 05f4 9491      		lpm r25, Z
 1346               		
 1347               	 ;  0 "" 2
 1348               	/* #NOAPP */
 1349               	.LBE172:
 1350 05f6 9923      		tst r25
 1351 05f8 01F4      		brne .L127
 1352               	/* epilogue start */
 1353               	.LM185:
 1354 05fa 0895      		ret
 1355               	.LFE72:
 1357               	.global	FillDisp
 1359               	FillDisp:
 1360               	.LFB73:
 1361               	.LM186:
 1362               	.LVL92:
 1363               	/* prologue: function */
 1364               	/* frame size = 0 */
 1365               	.LM187:
 1366 05fc 20E0      		ldi r18,lo8(0)
 1367 05fe 30E0      		ldi r19,hi8(0)
 1368               	.LM188:
 1369 0600 90E0      		ldi r25,lo8(0)
 1370               	.LVL93:
 1371 0602 00C0      		rjmp .L130
 1372               	.L131:
 1373 0604 F901      		movw r30,r18
 1374 0606 E80F      		add r30,r24
 1375 0608 F91F      		adc r31,r25
 1376               	.LM189:
 1377 060a E050      		subi r30,lo8(-(DispBuf))
 1378 060c F040      		sbci r31,hi8(-(DispBuf))
 1379 060e 4083      		st Z,r20
 1380 0610 2F5F      		subi r18,lo8(-(1))
 1381 0612 3F4F      		sbci r19,hi8(-(1))
 1382               	.L130:
 1383               	.LM190:
 1384 0614 2617      		cp r18,r22
 1385 0616 00F0      		brlo .L131
 1386               	/* epilogue start */
 1387               	.LM191:
 1388 0618 0895      		ret
 1389               	.LFE73:
 1391               	.global	PutFreq
 1393               	PutFreq:
 1394               	.LFB75:
 1395               	.LM192:
 1396               	.LVL94:
 1397 061a CF93      		push r28
 1398 061c DF93      		push r29
 1399               	/* prologue: function */
 1400               	/* frame size = 0 */
 1401 061e EC01      		movw r28,r24
 1402               	.LM193:
 1403 0620 CA01      		movw r24,r20
 1404               	.LVL95:
 1405 0622 DB01      		movw r26,r22
 1406 0624 8034      		cpi r24,lo8(1000000)
 1407 0626 22E4      		ldi r18,hi8(1000000)
 1408 0628 9207      		cpc r25,r18
 1409 062a 2FE0      		ldi r18,hlo8(1000000)
 1410 062c A207      		cpc r26,r18
 1411 062e 20E0      		ldi r18,hhi8(1000000)
 1412 0630 B207      		cpc r27,r18
 1413               	.LVL96:
 1414 0632 00F0      		brlo .L134
 1415 0634 8FE3      		ldi r24,lo8(999999)
 1416 0636 92E4      		ldi r25,hi8(999999)
 1417 0638 AFE0      		ldi r26,hlo8(999999)
 1418 063a B0E0      		ldi r27,hhi8(999999)
 1419               	.L134:
 1420 063c 8883      		st Y,r24
 1421 063e 9983      		std Y+1,r25
 1422 0640 AA83      		std Y+2,r26
 1423 0642 BB83      		std Y+3,r27
 1424               	/* epilogue start */
 1425               	.LM194:
 1426 0644 DF91      		pop r29
 1427 0646 CF91      		pop r28
 1428               	.LVL97:
 1429 0648 0895      		ret
 1430               	.LFE75:
 1432               	.global	SaveSetting
 1434               	SaveSetting:
 1435               	.LFB71:
 1436               	.LM195:
 1437 064a CF93      		push r28
 1438 064c DF93      		push r29
 1439               	/* prologue: function */
 1440               	/* frame size = 0 */
 1441               	.LM196:
 1442 064e C0E0      		ldi r28,lo8(0)
 1443 0650 D0E0      		ldi r29,hi8(0)
 1444               	.L137:
 1445               	.LM197:
 1446 0652 FE01      		movw r30,r28
 1447 0654 E050      		subi r30,lo8(-(miniDDS))
 1448 0656 F040      		sbci r31,hi8(-(miniDDS))
 1449 0658 CE01      		movw r24,r28
 1450 065a 8050      		subi r24,lo8(-(miniDDS_EE))
 1451 065c 9040      		sbci r25,hi8(-(miniDDS_EE))
 1452 065e 6081      		ld r22,Z
 1453 0660 0E94 0000 		call EE_Write
 1454 0664 2196      		adiw r28,1
 1455               	.LM198:
 1456 0666 CE33      		cpi r28,62
 1457 0668 D105      		cpc r29,__zero_reg__
 1458 066a 01F4      		brne .L137
 1459               	/* epilogue start */
 1460               	.LM199:
 1461 066c DF91      		pop r29
 1462 066e CF91      		pop r28
 1463 0670 0895      		ret
 1464               	.LFE71:
 1466               	.global	DispWholeNum
 1468               	DispWholeNum:
 1469               	.LFB74:
 1470               	.LM200:
 1471               	.LVL98:
 1472 0672 FF92      		push r15
 1473 0674 0F93      		push r16
 1474 0676 1F93      		push r17
 1475 0678 CF93      		push r28
 1476 067a DF93      		push r29
 1477               	/* prologue: function */
 1478               	/* frame size = 0 */
 1479 067c F82E      		mov r15,r24
 1480 067e 162F      		mov r17,r22
 1481 0680 FA01      		movw r30,r20
 1482               	.LM201:
 1483 0682 6081      		ld r22,Z
 1484 0684 7181      		ldd r23,Z+1
 1485 0686 8281      		ldd r24,Z+2
 1486 0688 9381      		ldd r25,Z+3
 1487               	.LVL99:
 1488 068a 40E0      		ldi r20,lo8(Strbuf)
 1489 068c 50E0      		ldi r21,hi8(Strbuf)
 1490               	.LVL100:
 1491 068e 0E94 0000 		call BinToDec32
 1492               	.LVL101:
 1493 0692 20E0      		ldi r18,lo8(0)
 1494 0694 30E0      		ldi r19,hi8(0)
 1495               	.LM202:
 1496 0696 90E2      		ldi r25,lo8(32)
 1497               	.LVL102:
 1498               	.L142:
 1499               	.LM203:
 1500 0698 522F      		mov r21,r18
 1501               	.LM204:
 1502 069a F901      		movw r30,r18
 1503 069c E050      		subi r30,lo8(-(Strbuf))
 1504 069e F040      		sbci r31,hi8(-(Strbuf))
 1505 06a0 8081      		ld r24,Z
 1506 06a2 8033      		cpi r24,lo8(48)
 1507 06a4 01F4      		brne .L141
 1508               	.LM205:
 1509 06a6 9083      		st Z,r25
 1510 06a8 5F5F      		subi r21,lo8(-(1))
 1511 06aa 2F5F      		subi r18,lo8(-(1))
 1512 06ac 3F4F      		sbci r19,hi8(-(1))
 1513               	.LM206:
 1514 06ae 2930      		cpi r18,9
 1515 06b0 3105      		cpc r19,__zero_reg__
 1516 06b2 01F4      		brne .L142
 1517               	.L141:
 1518               	.LM207:
 1519 06b4 012F      		mov r16,r17
 1520 06b6 0150      		subi r16,lo8(-(-1))
 1521               	.LVL103:
 1522 06b8 40E0      		ldi r20,lo8(0)
 1523               	.LVL104:
 1524 06ba 10E0      		ldi r17,lo8(0)
 1525               	.LVL105:
 1526               	.LM208:
 1527 06bc 202F      		mov r18,r16
 1528 06be 30E0      		ldi r19,lo8(0)
 1529               	.LVL106:
 1530 06c0 8F2D      		mov r24,r15
 1531 06c2 90E0      		ldi r25,lo8(0)
 1532               	.LVL107:
 1533 06c4 B901      		movw r22,r18
 1534 06c6 680F      		add r22,r24
 1535 06c8 791F      		adc r23,r25
 1536               	.LM209:
 1537 06ca EB01      		movw r28,r22
 1538 06cc C050      		subi r28,lo8(-(DispBuf-3))
 1539 06ce D040      		sbci r29,hi8(-(DispBuf-3))
 1540               	.LVL108:
 1541               	.L147:
 1542               	.LM210:
 1543 06d0 4330      		cpi r20,lo8(3)
 1544 06d2 01F4      		brne .L143
 1545               	.LM211:
 1546 06d4 5730      		cpi r21,lo8(7)
 1547 06d6 00F0      		brlo .L144
 1548 06d8 80E2      		ldi r24,lo8(32)
 1549 06da 00C0      		rjmp .L145
 1550               	.LVL109:
 1551               	.L144:
 1552 06dc 8CE2      		ldi r24,lo8(44)
 1553               	.L145:
 1554 06de 8883      		st Y,r24
 1555 06e0 11E0      		ldi r17,lo8(1)
 1556 06e2 00C0      		rjmp .L146
 1557               	.LVL110:
 1558               	.L143:
 1559               	.LM212:
 1560 06e4 842F      		mov r24,r20
 1561 06e6 90E0      		ldi r25,lo8(0)
 1562               	.LVL111:
 1563 06e8 DB01      		movw r26,r22
 1564 06ea A81B      		sub r26,r24
 1565 06ec B90B      		sbc r27,r25
 1566 06ee E12F      		mov r30,r17
 1567 06f0 F0E0      		ldi r31,lo8(0)
 1568 06f2 E81B      		sub r30,r24
 1569 06f4 F90B      		sbc r31,r25
 1570               	.LVL112:
 1571 06f6 E050      		subi r30,lo8(-(Strbuf+9))
 1572 06f8 F040      		sbci r31,hi8(-(Strbuf+9))
 1573               	.LVL113:
 1574 06fa 8081      		ld r24,Z
 1575 06fc A050      		subi r26,lo8(-(DispBuf))
 1576 06fe B040      		sbci r27,hi8(-(DispBuf))
 1577 0700 8C93      		st X,r24
 1578               	.LVL114:
 1579               	.L146:
 1580               	.LM213:
 1581 0702 4F5F      		subi r20,lo8(-(1))
 1582               	.LM214:
 1583 0704 0417      		cp r16,r20
 1584 0706 00F4      		brsh .L147
 1585               	/* epilogue start */
 1586               	.LM215:
 1587 0708 DF91      		pop r29
 1588 070a CF91      		pop r28
 1589 070c 1F91      		pop r17
 1590 070e 0F91      		pop r16
 1591               	.LVL115:
 1592 0710 FF90      		pop r15
 1593               	.LVL116:
 1594 0712 0895      		ret
 1595               	.LFE74:
 1597               	.global	ShowStep
 1599               	ShowStep:
 1600               	.LFB63:
 1601               	.LM216:
 1602               	/* prologue: function */
 1603               	/* frame size = 0 */
 1604               	.LM217:
 1605 0714 80E0      		ldi r24,lo8(0)
 1606 0716 90E0      		ldi r25,hi8(0)
 1607               	.LBB173:
 1608               	.LBB174:
 1609               	.LBB175:
 1610               	.LBB176:
 1611               	.LM218:
 1612 0718 20E2      		ldi r18,lo8(32)
 1613               	.L152:
 1614 071a FC01      		movw r30,r24
 1615 071c E050      		subi r30,lo8(-(DispBuf))
 1616 071e F040      		sbci r31,hi8(-(DispBuf))
 1617 0720 2083      		st Z,r18
 1618 0722 0196      		adiw r24,1
 1619               	.LM219:
 1620 0724 8032      		cpi r24,32
 1621 0726 9105      		cpc r25,__zero_reg__
 1622 0728 01F4      		brne .L152
 1623               	.LBE176:
 1624               	.LBE175:
 1625               	.LBE174:
 1626               	.LBE173:
 1627               	.LM220:
 1628 072a 8091 0000 		lds r24,KeyParam
 1629 072e 8834      		cpi r24,lo8(72)
 1630 0730 01F0      		breq .L153
 1631 0732 80E0      		ldi r24,lo8(0)
 1632 0734 90E0      		ldi r25,hi8(0)
 1633 0736 00C0      		rjmp .L154
 1634               	.L153:
 1635 0738 80E0      		ldi r24,lo8(0)
 1636 073a 90E0      		ldi r25,hi8(0)
 1637 073c 00C0      		rjmp .L155
 1638               	.LVL117:
 1639               	.L156:
 1640               	.LBB177:
 1641               	.LBB178:
 1642               	.LM221:
 1643 073e E32F      		mov r30,r19
 1644 0740 F0E0      		ldi r31,lo8(0)
 1645 0742 E050      		subi r30,lo8(-(DispBuf))
 1646 0744 F040      		sbci r31,hi8(-(DispBuf))
 1647 0746 2083      		st Z,r18
 1648               	.L155:
 1649 0748 382F      		mov r19,r24
 1650               	.LBB179:
 1651               	.LM222:
 1652 074a FC01      		movw r30,r24
 1653 074c E050      		subi r30,lo8(-(FreqStep))
 1654 074e F040      		sbci r31,hi8(-(FreqStep))
 1655               	/* #APP */
 1656               	 ;  2641 "FuncGen.c" 1
 1657 0750 2491      		lpm r18, Z
 1658               		
 1659               	 ;  0 "" 2
 1660               	/* #NOAPP */
 1661 0752 0196      		adiw r24,1
 1662               	.LBE179:
 1663 0754 2223      		tst r18
 1664 0756 01F4      		brne .L156
 1665               	.LBE178:
 1666               	.LBE177:
 1667               	.LM223:
 1668 0758 88E4      		ldi r24,lo8(72)
 1669 075a 8093 0000 		sts DispBuf+27,r24
 1670               	.LM224:
 1671 075e 8AE7      		ldi r24,lo8(122)
 1672 0760 8093 0000 		sts DispBuf+28,r24
 1673               	.LM225:
 1674 0764 6091 0000 		lds r22,miniDDS+16
 1675 0768 7091 0000 		lds r23,(miniDDS+16)+1
 1676 076c 8091 0000 		lds r24,(miniDDS+16)+2
 1677 0770 9091 0000 		lds r25,(miniDDS+16)+3
 1678               	.LVL118:
 1679               	.L167:
 1680 0774 40E0      		ldi r20,lo8(Strbuf)
 1681 0776 50E0      		ldi r21,hi8(Strbuf)
 1682 0778 0E94 0000 		call BinToDec32
 1683               	.LVL119:
 1684 077c 20E0      		ldi r18,lo8(0)
 1685 077e 30E0      		ldi r19,hi8(0)
 1686               	.LM226:
 1687 0780 90E2      		ldi r25,lo8(32)
 1688 0782 00C0      		rjmp .L157
 1689               	.LVL120:
 1690               	.L158:
 1691               	.LBB180:
 1692               	.LBB181:
 1693               	.LM227:
 1694 0784 E32F      		mov r30,r19
 1695 0786 F0E0      		ldi r31,lo8(0)
 1696 0788 E050      		subi r30,lo8(-(DispBuf))
 1697 078a F040      		sbci r31,hi8(-(DispBuf))
 1698 078c 2083      		st Z,r18
 1699               	.L154:
 1700 078e 382F      		mov r19,r24
 1701               	.LBB182:
 1702               	.LM228:
 1703 0790 FC01      		movw r30,r24
 1704 0792 E050      		subi r30,lo8(-(TimeStep))
 1705 0794 F040      		sbci r31,hi8(-(TimeStep))
 1706               	/* #APP */
 1707               	 ;  2641 "FuncGen.c" 1
 1708 0796 2491      		lpm r18, Z
 1709               		
 1710               	 ;  0 "" 2
 1711               	/* #NOAPP */
 1712 0798 0196      		adiw r24,1
 1713               	.LBE182:
 1714 079a 2223      		tst r18
 1715 079c 01F4      		brne .L158
 1716               	.LBE181:
 1717               	.LBE180:
 1718               	.LM229:
 1719 079e 8DE6      		ldi r24,lo8(109)
 1720 07a0 8093 0000 		sts DispBuf+27,r24
 1721               	.LM230:
 1722 07a4 83E7      		ldi r24,lo8(115)
 1723 07a6 8093 0000 		sts DispBuf+28,r24
 1724               	.LM231:
 1725 07aa 6091 0000 		lds r22,miniDDS+20
 1726 07ae 7091 0000 		lds r23,(miniDDS+20)+1
 1727 07b2 8091 0000 		lds r24,(miniDDS+20)+2
 1728 07b6 9091 0000 		lds r25,(miniDDS+20)+3
 1729 07ba 00C0      		rjmp .L167
 1730               	.LVL121:
 1731               	.L157:
 1732               	.LM232:
 1733 07bc F901      		movw r30,r18
 1734 07be E050      		subi r30,lo8(-(Strbuf))
 1735 07c0 F040      		sbci r31,hi8(-(Strbuf))
 1736 07c2 8081      		ld r24,Z
 1737 07c4 8033      		cpi r24,lo8(48)
 1738 07c6 01F0      		breq .L160
 1739               	.L162:
 1740 07c8 20E0      		ldi r18,lo8(0)
 1741 07ca 30E0      		ldi r19,hi8(0)
 1742 07cc 00C0      		rjmp .L161
 1743               	.L160:
 1744               	.LM233:
 1745 07ce 9083      		st Z,r25
 1746 07d0 2F5F      		subi r18,lo8(-(1))
 1747 07d2 3F4F      		sbci r19,hi8(-(1))
 1748               	.LM234:
 1749 07d4 2930      		cpi r18,9
 1750 07d6 3105      		cpc r19,__zero_reg__
 1751 07d8 01F4      		brne .L157
 1752 07da 00C0      		rjmp .L162
 1753               	.L161:
 1754               	.LM235:
 1755 07dc F901      		movw r30,r18
 1756 07de E050      		subi r30,lo8(-(Strbuf))
 1757 07e0 F040      		sbci r31,hi8(-(Strbuf))
 1758 07e2 8081      		ld r24,Z
 1759 07e4 F901      		movw r30,r18
 1760 07e6 E050      		subi r30,lo8(-(DispBuf+16))
 1761 07e8 F040      		sbci r31,hi8(-(DispBuf+16))
 1762 07ea 8083      		st Z,r24
 1763 07ec 2F5F      		subi r18,lo8(-(1))
 1764 07ee 3F4F      		sbci r19,hi8(-(1))
 1765               	.LM236:
 1766 07f0 2A30      		cpi r18,10
 1767 07f2 3105      		cpc r19,__zero_reg__
 1768 07f4 01F4      		brne .L161
 1769               	.LM237:
 1770 07f6 8091 0000 		lds r24,Flags
 1771 07fa 8068      		ori r24,lo8(-128)
 1772 07fc 8093 0000 		sts Flags,r24
 1773               	/* epilogue start */
 1774               	.LM238:
 1775 0800 0895      		ret
 1776               	.LFE63:
 1778               	.global	SendServoRun
 1780               	SendServoRun:
 1781               	.LFB69:
 1782               	.LM239:
 1783               	/* prologue: function */
 1784               	/* frame size = 0 */
 1785               	.LM240:
 1786 0802 83E0      		ldi r24,lo8(3)
 1787 0804 8093 0000 		sts Strbuf,r24
 1788               	.LM241:
 1789 0808 8091 0000 		lds r24,CurrFocus
 1790 080c 8093 0000 		sts Strbuf+1,r24
 1791               	.LM242:
 1792 0810 8091 0000 		lds r24,miniDDS+28
 1793 0814 9091 0000 		lds r25,(miniDDS+28)+1
 1794 0818 9093 0000 		sts (Strbuf+2)+1,r25
 1795 081c 8093 0000 		sts Strbuf+2,r24
 1796               	.LM243:
 1797 0820 8091 0000 		lds r24,miniDDS+30
 1798 0824 9091 0000 		lds r25,(miniDDS+30)+1
 1799 0828 9093 0000 		sts (Strbuf+4)+1,r25
 1800 082c 8093 0000 		sts Strbuf+4,r24
 1801               	.LM244:
 1802 0830 8091 0000 		lds r24,miniDDS+36
 1803 0834 9091 0000 		lds r25,(miniDDS+36)+1
 1804 0838 9093 0000 		sts (Strbuf+6)+1,r25
 1805 083c 8093 0000 		sts Strbuf+6,r24
 1806               	.LM245:
 1807 0840 8091 0000 		lds r24,miniDDS+38
 1808 0844 9091 0000 		lds r25,(miniDDS+38)+1
 1809 0848 9093 0000 		sts (Strbuf+8)+1,r25
 1810 084c 8093 0000 		sts Strbuf+8,r24
 1811               	.LM246:
 1812 0850 8091 0000 		lds r24,miniDDS+40
 1813 0854 9091 0000 		lds r25,(miniDDS+40)+1
 1814 0858 9093 0000 		sts (Strbuf+10)+1,r25
 1815 085c 8093 0000 		sts Strbuf+10,r24
 1816               	.LM247:
 1817 0860 80E0      		ldi r24,lo8(Strbuf)
 1818 0862 90E0      		ldi r25,hi8(Strbuf)
 1819 0864 0E94 0000 		call SendBuf
 1820               	/* epilogue start */
 1821               	.LM248:
 1822 0868 0895      		ret
 1823               	.LFE69:
 1825               	.global	ShowServoRun
 1827               	ShowServoRun:
 1828               	.LFB60:
 1829               	.LM249:
 1830               	/* prologue: function */
 1831               	/* frame size = 0 */
 1832               	.LM250:
 1833 086a 80E0      		ldi r24,lo8(0)
 1834 086c 90E0      		ldi r25,hi8(0)
 1835               	.LBB183:
 1836               	.LBB184:
 1837               	.LBB185:
 1838               	.LBB186:
 1839               	.LM251:
 1840 086e 20E2      		ldi r18,lo8(32)
 1841               	.L171:
 1842 0870 FC01      		movw r30,r24
 1843 0872 E050      		subi r30,lo8(-(DispBuf))
 1844 0874 F040      		sbci r31,hi8(-(DispBuf))
 1845 0876 2083      		st Z,r18
 1846 0878 0196      		adiw r24,1
 1847               	.LM252:
 1848 087a 8032      		cpi r24,32
 1849 087c 9105      		cpc r25,__zero_reg__
 1850 087e 01F4      		brne .L171
 1851 0880 80E0      		ldi r24,lo8(0)
 1852 0882 90E0      		ldi r25,hi8(0)
 1853 0884 00C0      		rjmp .L172
 1854               	.LVL122:
 1855               	.L173:
 1856               	.LBE186:
 1857               	.LBE185:
 1858               	.LBE184:
 1859               	.LBE183:
 1860               	.LBB187:
 1861               	.LBB188:
 1862               	.LM253:
 1863 0886 E32F      		mov r30,r19
 1864 0888 F0E0      		ldi r31,lo8(0)
 1865 088a E050      		subi r30,lo8(-(DispBuf))
 1866 088c F040      		sbci r31,hi8(-(DispBuf))
 1867 088e 2083      		st Z,r18
 1868               	.L172:
 1869 0890 382F      		mov r19,r24
 1870               	.LBB189:
 1871               	.LM254:
 1872 0892 FC01      		movw r30,r24
 1873 0894 E050      		subi r30,lo8(-(ServoRun))
 1874 0896 F040      		sbci r31,hi8(-(ServoRun))
 1875               	/* #APP */
 1876               	 ;  2641 "FuncGen.c" 1
 1877 0898 2491      		lpm r18, Z
 1878               		
 1879               	 ;  0 "" 2
 1880               	/* #NOAPP */
 1881 089a 0196      		adiw r24,1
 1882               	.LBE189:
 1883 089c 2223      		tst r18
 1884 089e 01F4      		brne .L173
 1885               	.LBE188:
 1886               	.LBE187:
 1887               	.LM255:
 1888 08a0 8091 0000 		lds r24,CurrFocus
 1889 08a4 90E0      		ldi r25,lo8(0)
 1890               	.LVL123:
 1891 08a6 F3E0      		ldi r31,3
 1892 08a8 880F      	1:	lsl r24
 1893 08aa 991F      		rol r25
 1894 08ac FA95      		dec r31
 1895 08ae 01F4      		brne 1b
 1896               	.LVL124:
 1897 08b0 8050      		subi r24,lo8(-(ServoRunState))
 1898 08b2 9040      		sbci r25,hi8(-(ServoRunState))
 1899 08b4 20E1      		ldi r18,lo8(16)
 1900               	.LVL125:
 1901 08b6 00C0      		rjmp .L174
 1902               	.LVL126:
 1903               	.L175:
 1904               	.LBB190:
 1905               	.LBB191:
 1906               	.LM256:
 1907 08b8 E22F      		mov r30,r18
 1908               	.LVL127:
 1909 08ba F0E0      		ldi r31,lo8(0)
 1910 08bc E050      		subi r30,lo8(-(DispBuf))
 1911 08be F040      		sbci r31,hi8(-(DispBuf))
 1912 08c0 3083      		st Z,r19
 1913 08c2 2F5F      		subi r18,lo8(-(1))
 1914               	.LVL128:
 1915               	.L174:
 1916 08c4 FC01      		movw r30,r24
 1917               	.LVL129:
 1918               	.LBB192:
 1919               	.LM257:
 1920 08c6 0196      		adiw r24,1
 1921               	/* #APP */
 1922               	 ;  2641 "FuncGen.c" 1
 1923 08c8 3491      		lpm r19, Z
 1924               		
 1925               	 ;  0 "" 2
 1926               	.LVL130:
 1927               	/* #NOAPP */
 1928               	.LBE192:
 1929 08ca 3323      		tst r19
 1930 08cc 01F4      		brne .L175
 1931               	.LBE191:
 1932               	.LBE190:
 1933               	.LM258:
 1934 08ce 8091 0000 		lds r24,Flags
 1935               	.LVL131:
 1936 08d2 8068      		ori r24,lo8(-128)
 1937 08d4 8093 0000 		sts Flags,r24
 1938               	.LM259:
 1939 08d8 0E94 0000 		call SendServoRun
 1940               	.LVL132:
 1941               	/* epilogue start */
 1942               	.LM260:
 1943 08dc 0895      		ret
 1944               	.LFE60:
 1946               	.global	SendServoPos
 1948               	SendServoPos:
 1949               	.LFB68:
 1950               	.LM261:
 1951               	/* prologue: function */
 1952               	/* frame size = 0 */
 1953               	.LM262:
 1954 08de 82E0      		ldi r24,lo8(2)
 1955 08e0 8093 0000 		sts Strbuf,r24
 1956               	.LM263:
 1957 08e4 1092 0000 		sts Strbuf+1,__zero_reg__
 1958               	.LM264:
 1959 08e8 8091 0000 		lds r24,miniDDS+24
 1960 08ec 9091 0000 		lds r25,(miniDDS+24)+1
 1961 08f0 9093 0000 		sts (Strbuf+2)+1,r25
 1962 08f4 8093 0000 		sts Strbuf+2,r24
 1963               	.LM265:
 1964 08f8 8091 0000 		lds r24,miniDDS+40
 1965 08fc 9091 0000 		lds r25,(miniDDS+40)+1
 1966 0900 9093 0000 		sts (Strbuf+4)+1,r25
 1967 0904 8093 0000 		sts Strbuf+4,r24
 1968               	.LM266:
 1969 0908 80E0      		ldi r24,lo8(Strbuf)
 1970 090a 90E0      		ldi r25,hi8(Strbuf)
 1971 090c 0E94 0000 		call SendBuf
 1972               	/* epilogue start */
 1973               	.LM267:
 1974 0910 0895      		ret
 1975               	.LFE68:
 1977               	.global	SendSweep
 1979               	SendSweep:
 1980               	.LFB67:
 1981               	.LM268:
 1982 0912 6F92      		push r6
 1983 0914 7F92      		push r7
 1984 0916 8F92      		push r8
 1985 0918 9F92      		push r9
 1986 091a AF92      		push r10
 1987 091c BF92      		push r11
 1988 091e CF92      		push r12
 1989 0920 DF92      		push r13
 1990 0922 EF92      		push r14
 1991 0924 FF92      		push r15
 1992 0926 0F93      		push r16
 1993 0928 1F93      		push r17
 1994               	/* prologue: function */
 1995               	/* frame size = 0 */
 1996               	.LM269:
 1997 092a 81E0      		ldi r24,lo8(1)
 1998 092c 8093 0000 		sts Strbuf,r24
 1999               	.LM270:
 2000 0930 8091 0000 		lds r24,TrigCtrl
 2001 0934 8A32      		cpi r24,lo8(42)
 2002 0936 01F4      		brne .L181
 2003 0938 90E4      		ldi r25,lo8(64)
 2004               	.LVL133:
 2005 093a 00C0      		rjmp .L182
 2006               	.LVL134:
 2007               	.L181:
 2008 093c 90E0      		ldi r25,lo8(0)
 2009               	.LVL135:
 2010               	.L182:
 2011               	.LM271:
 2012 093e 8091 0000 		lds r24,miniDDS+60
 2013 0942 8234      		cpi r24,lo8(66)
 2014 0944 01F4      		brne .L183
 2015 0946 20E2      		ldi r18,lo8(32)
 2016               	.LVL136:
 2017 0948 00C0      		rjmp .L184
 2018               	.LVL137:
 2019               	.L183:
 2020 094a 20E0      		ldi r18,lo8(0)
 2021               	.LVL138:
 2022               	.L184:
 2023               	.LM272:
 2024 094c 8091 0000 		lds r24,miniDDS+15
 2025 0950 8F71      		andi r24,lo8(31)
 2026 0952 982B      		or r25,r24
 2027 0954 922B      		or r25,r18
 2028 0956 9093 0000 		sts Strbuf+1,r25
 2029               	.LM273:
 2030 095a 80E0      		ldi r24,lo8(miniDDS+44)
 2031 095c 90E0      		ldi r25,hi8(miniDDS+44)
 2032 095e 60E0      		ldi r22,lo8(Strbuf+2)
 2033 0960 70E0      		ldi r23,hi8(Strbuf+2)
 2034 0962 20E8      		ldi r18,lo8(0x4a189680)
 2035 0964 36E9      		ldi r19,hi8(0x4a189680)
 2036 0966 48E1      		ldi r20,hlo8(0x4a189680)
 2037 0968 5AE4      		ldi r21,hhi8(0x4a189680)
 2038               	.LVL139:
 2039 096a 0E94 0000 		call CalDeltaPhase
 2040               	.LVL140:
 2041               	.LM274:
 2042 096e 80E0      		ldi r24,lo8(miniDDS+48)
 2043 0970 90E0      		ldi r25,hi8(miniDDS+48)
 2044 0972 60E0      		ldi r22,lo8(Strbuf+6)
 2045 0974 70E0      		ldi r23,hi8(Strbuf+6)
 2046 0976 20E8      		ldi r18,lo8(0x4a189680)
 2047 0978 36E9      		ldi r19,hi8(0x4a189680)
 2048 097a 48E1      		ldi r20,hlo8(0x4a189680)
 2049 097c 5AE4      		ldi r21,hhi8(0x4a189680)
 2050 097e 0E94 0000 		call CalDeltaPhase
 2051               	.LM275:
 2052 0982 6090 0000 		lds r6,miniDDS+56
 2053 0986 7090 0000 		lds r7,(miniDDS+56)+1
 2054 098a 8090 0000 		lds r8,(miniDDS+56)+2
 2055 098e 9090 0000 		lds r9,(miniDDS+56)+3
 2056 0992 6091 0000 		lds r22,miniDDS+52
 2057 0996 7091 0000 		lds r23,(miniDDS+52)+1
 2058 099a 8091 0000 		lds r24,(miniDDS+52)+2
 2059 099e 9091 0000 		lds r25,(miniDDS+52)+3
 2060 09a2 A401      		movw r20,r8
 2061 09a4 9301      		movw r18,r6
 2062 09a6 0E94 0000 		call __udivmodsi4
 2063 09aa C901      		movw r24,r18
 2064 09ac DA01      		movw r26,r20
 2065 09ae 5C01      		movw r10,r24
 2066 09b0 6D01      		movw r12,r26
 2067               	.LVL141:
 2068               	.LM276:
 2069 09b2 A114      		cp r10,__zero_reg__
 2070 09b4 B104      		cpc r11,__zero_reg__
 2071 09b6 C104      		cpc r12,__zero_reg__
 2072 09b8 D104      		cpc r13,__zero_reg__
 2073 09ba 01F4      		brne .L185
 2074               	.LVL142:
 2075 09bc B1E0      		ldi r27,lo8(1)
 2076 09be AB2E      		mov r10,r27
 2077 09c0 B12C      		mov r11,__zero_reg__
 2078 09c2 C12C      		mov r12,__zero_reg__
 2079 09c4 D12C      		mov r13,__zero_reg__
 2080               	.LVL143:
 2081               	.L185:
 2082               	.LM277:
 2083 09c6 6091 0000 		lds r22,Strbuf+6
 2084 09ca 7091 0000 		lds r23,(Strbuf+6)+1
 2085 09ce 8091 0000 		lds r24,(Strbuf+6)+2
 2086 09d2 9091 0000 		lds r25,(Strbuf+6)+3
 2087 09d6 2091 0000 		lds r18,Strbuf+2
 2088 09da 3091 0000 		lds r19,(Strbuf+2)+1
 2089 09de 4091 0000 		lds r20,(Strbuf+2)+2
 2090 09e2 5091 0000 		lds r21,(Strbuf+2)+3
 2091 09e6 621B      		sub r22,r18
 2092 09e8 730B      		sbc r23,r19
 2093 09ea 840B      		sbc r24,r20
 2094 09ec 950B      		sbc r25,r21
 2095 09ee 982F      		mov r25,r24
 2096 09f0 872F      		mov r24,r23
 2097 09f2 762F      		mov r23,r22
 2098 09f4 6627      		clr r22
 2099 09f6 0E94 0000 		call __floatsisf
 2100 09fa 7B01      		movw r14,r22
 2101 09fc 8C01      		movw r16,r24
 2102 09fe C601      		movw r24,r12
 2103 0a00 B501      		movw r22,r10
 2104 0a02 0E94 0000 		call __floatunsisf
 2105 0a06 9B01      		movw r18,r22
 2106 0a08 AC01      		movw r20,r24
 2107 0a0a C801      		movw r24,r16
 2108 0a0c B701      		movw r22,r14
 2109 0a0e 0E94 0000 		call __divsf3
 2110 0a12 0E94 0000 		call __fixsfsi
 2111 0a16 6093 0000 		sts Strbuf+6,r22
 2112 0a1a 7093 0000 		sts (Strbuf+6)+1,r23
 2113 0a1e 8093 0000 		sts (Strbuf+6)+2,r24
 2114 0a22 9093 0000 		sts (Strbuf+6)+3,r25
 2115               	.LM278:
 2116 0a26 A094      		com r10
 2117 0a28 B094      		com r11
 2118 0a2a C094      		com r12
 2119 0a2c D094      		com r13
 2120 0a2e A092 0000 		sts Strbuf+10,r10
 2121 0a32 B092 0000 		sts (Strbuf+10)+1,r11
 2122 0a36 C092 0000 		sts (Strbuf+10)+2,r12
 2123 0a3a D092 0000 		sts (Strbuf+10)+3,r13
 2124               	.LM279:
 2125 0a3e 8827      		clr r24
 2126 0a40 9927      		clr r25
 2127 0a42 8619      		sub r24,r6
 2128 0a44 9709      		sbc r25,r7
 2129 0a46 9093 0000 		sts (Strbuf+14)+1,r25
 2130 0a4a 8093 0000 		sts Strbuf+14,r24
 2131               	.LM280:
 2132 0a4e 80E0      		ldi r24,lo8(0)
 2133 0a50 9091 0000 		lds r25,miniDDS+61
 2134 0a54 64E6      		ldi r22,lo8(100)
 2135 0a56 70E0      		ldi r23,hi8(100)
 2136 0a58 0E94 0000 		call __udivmodhi4
 2137 0a5c 6093 0000 		sts Strbuf+16,r22
 2138               	.LM281:
 2139 0a60 80E0      		ldi r24,lo8(Strbuf)
 2140 0a62 90E0      		ldi r25,hi8(Strbuf)
 2141 0a64 0E94 0000 		call SendBuf
 2142               	/* epilogue start */
 2143               	.LM282:
 2144 0a68 1F91      		pop r17
 2145 0a6a 0F91      		pop r16
 2146 0a6c FF90      		pop r15
 2147 0a6e EF90      		pop r14
 2148 0a70 DF90      		pop r13
 2149 0a72 CF90      		pop r12
 2150 0a74 BF90      		pop r11
 2151 0a76 AF90      		pop r10
 2152               	.LVL144:
 2153 0a78 9F90      		pop r9
 2154 0a7a 8F90      		pop r8
 2155 0a7c 7F90      		pop r7
 2156 0a7e 6F90      		pop r6
 2157 0a80 0895      		ret
 2158               	.LFE67:
 2160               	.global	SendDDS
 2162               	SendDDS:
 2163               	.LFB66:
 2164               	.LM283:
 2165               	/* prologue: function */
 2166               	/* frame size = 0 */
 2167               	.LM284:
 2168 0a82 8091 0000 		lds r24,miniDDS+5
 2169 0a86 8823      		tst r24
 2170 0a88 01F4      		brne .L188
 2171               	.LM285:
 2172 0a8a 8091 0000 		lds r24,miniDDS+1
 2173 0a8e 9091 0000 		lds r25,(miniDDS+1)+1
 2174 0a92 A091 0000 		lds r26,(miniDDS+1)+2
 2175 0a96 B091 0000 		lds r27,(miniDDS+1)+3
 2176 0a9a 8997      		sbiw r24,41
 2177 0a9c A105      		cpc r26,__zero_reg__
 2178 0a9e B105      		cpc r27,__zero_reg__
 2179 0aa0 00F0      		brlo .L189
 2180               	.LM286:
 2181 0aa2 80E0      		ldi r24,lo8(miniDDS+1)
 2182 0aa4 90E0      		ldi r25,hi8(miniDDS+1)
 2183 0aa6 60E0      		ldi r22,lo8(Strbuf+2)
 2184 0aa8 70E0      		ldi r23,hi8(Strbuf+2)
 2185 0aaa 20E8      		ldi r18,lo8(0x4a189680)
 2186 0aac 36E9      		ldi r19,hi8(0x4a189680)
 2187 0aae 48E1      		ldi r20,hlo8(0x4a189680)
 2188 0ab0 5AE4      		ldi r21,hhi8(0x4a189680)
 2189 0ab2 0E94 0000 		call CalDeltaPhase
 2190 0ab6 00C0      		rjmp .L195
 2191               	.L189:
 2192               	.LM287:
 2193 0ab8 80E0      		ldi r24,lo8(miniDDS+1)
 2194 0aba 90E0      		ldi r25,hi8(miniDDS+1)
 2195 0abc 60E0      		ldi r22,lo8(Strbuf+2)
 2196 0abe 70E0      		ldi r23,hi8(Strbuf+2)
 2197 0ac0 20E0      		ldi r18,lo8(0x461c4000)
 2198 0ac2 30E4      		ldi r19,hi8(0x461c4000)
 2199 0ac4 4CE1      		ldi r20,hlo8(0x461c4000)
 2200 0ac6 56E4      		ldi r21,hhi8(0x461c4000)
 2201 0ac8 0E94 0000 		call CalDeltaPhase
 2202 0acc 00C0      		rjmp .L196
 2203               	.L188:
 2204               	.LM288:
 2205 0ace 6091 0000 		lds r22,miniDDS+1
 2206 0ad2 7091 0000 		lds r23,(miniDDS+1)+1
 2207 0ad6 8091 0000 		lds r24,(miniDDS+1)+2
 2208 0ada 9091 0000 		lds r25,(miniDDS+1)+3
 2209 0ade 6931      		cpi r22,lo8(25)
 2210 0ae0 7105      		cpc r23,__zero_reg__
 2211 0ae2 8105      		cpc r24,__zero_reg__
 2212 0ae4 9105      		cpc r25,__zero_reg__
 2213 0ae6 00F4      		brsh .L191
 2214               	.LM289:
 2215 0ae8 0E94 0000 		call __floatunsisf
 2216 0aec 9B01      		movw r18,r22
 2217 0aee AC01      		movw r20,r24
 2218 0af0 68E1      		ldi r22,lo8(0x45d1b718)
 2219 0af2 77EB      		ldi r23,hi8(0x45d1b718)
 2220 0af4 81ED      		ldi r24,hlo8(0x45d1b718)
 2221 0af6 95E4      		ldi r25,hhi8(0x45d1b718)
 2222 0af8 0E94 0000 		call __divsf3
 2223 0afc 0E94 0000 		call __fixunssfsi
 2224 0b00 6093 0000 		sts Strbuf+2,r22
 2225 0b04 7093 0000 		sts (Strbuf+2)+1,r23
 2226 0b08 8093 0000 		sts (Strbuf+2)+2,r24
 2227 0b0c 9093 0000 		sts (Strbuf+2)+3,r25
 2228               	.L195:
 2229 0b10 90E0      		ldi r25,lo8(0)
 2230               	.LVL145:
 2231 0b12 00C0      		rjmp .L190
 2232               	.LVL146:
 2233               	.L191:
 2234               	.LM290:
 2235 0b14 0E94 0000 		call __floatunsisf
 2236 0b18 9B01      		movw r18,r22
 2237 0b1a AC01      		movw r20,r24
 2238 0b1c 6CEC      		ldi r22,lo8(0x49cccccc)
 2239 0b1e 7CEC      		ldi r23,hi8(0x49cccccc)
 2240 0b20 8CEC      		ldi r24,hlo8(0x49cccccc)
 2241 0b22 99E4      		ldi r25,hhi8(0x49cccccc)
 2242 0b24 0E94 0000 		call __divsf3
 2243 0b28 0E94 0000 		call __fixunssfsi
 2244 0b2c 6093 0000 		sts Strbuf+2,r22
 2245 0b30 7093 0000 		sts (Strbuf+2)+1,r23
 2246 0b34 8093 0000 		sts (Strbuf+2)+2,r24
 2247 0b38 9093 0000 		sts (Strbuf+2)+3,r25
 2248               	.L196:
 2249 0b3c 90E8      		ldi r25,lo8(-128)
 2250               	.LVL147:
 2251               	.L190:
 2252               	.LM291:
 2253 0b3e 8091 0000 		lds r24,TrigCtrl
 2254 0b42 8A32      		cpi r24,lo8(42)
 2255 0b44 01F4      		brne .L192
 2256 0b46 20E4      		ldi r18,lo8(64)
 2257               	.LVL148:
 2258 0b48 00C0      		rjmp .L193
 2259               	.LVL149:
 2260               	.L192:
 2261 0b4a 20E0      		ldi r18,lo8(0)
 2262               	.LVL150:
 2263               	.L193:
 2264               	.LM292:
 2265 0b4c 1092 0000 		sts Strbuf,__zero_reg__
 2266               	.LM293:
 2267 0b50 8091 0000 		lds r24,miniDDS+15
 2268 0b54 8F71      		andi r24,lo8(31)
 2269 0b56 982B      		or r25,r24
 2270 0b58 922B      		or r25,r18
 2271 0b5a 9093 0000 		sts Strbuf+1,r25
 2272               	.LM294:
 2273 0b5e 9091 0000 		lds r25,miniDDS+61
 2274               	.LVL151:
 2275 0b62 8FEF      		ldi r24,lo8(-1)
 2276 0b64 989F      		mul r25,r24
 2277 0b66 C001      		movw r24,r0
 2278 0b68 1124      		clr r1
 2279 0b6a 64E6      		ldi r22,lo8(100)
 2280 0b6c 70E0      		ldi r23,hi8(100)
 2281 0b6e 0E94 0000 		call __udivmodhi4
 2282 0b72 6093 0000 		sts Strbuf+16,r22
 2283               	.LM295:
 2284 0b76 80E0      		ldi r24,lo8(Strbuf)
 2285 0b78 90E0      		ldi r25,hi8(Strbuf)
 2286 0b7a 0E94 0000 		call SendBuf
 2287               	.LVL152:
 2288               	/* epilogue start */
 2289               	.LM296:
 2290 0b7e 0895      		ret
 2291               	.LFE66:
 2293               	.global	ShowDuty
 2295               	ShowDuty:
 2296               	.LFB64:
 2297               	.LM297:
 2298               	/* prologue: function */
 2299               	/* frame size = 0 */
 2300               	.LM298:
 2301 0b80 80E0      		ldi r24,lo8(0)
 2302 0b82 90E0      		ldi r25,hi8(0)
 2303               	.LBB193:
 2304               	.LBB194:
 2305               	.LBB195:
 2306               	.LBB196:
 2307               	.LM299:
 2308 0b84 20E2      		ldi r18,lo8(32)
 2309               	.L198:
 2310 0b86 FC01      		movw r30,r24
 2311 0b88 E050      		subi r30,lo8(-(DispBuf))
 2312 0b8a F040      		sbci r31,hi8(-(DispBuf))
 2313 0b8c 2083      		st Z,r18
 2314 0b8e 0196      		adiw r24,1
 2315               	.LM300:
 2316 0b90 8032      		cpi r24,32
 2317 0b92 9105      		cpc r25,__zero_reg__
 2318 0b94 01F4      		brne .L198
 2319 0b96 80E0      		ldi r24,lo8(0)
 2320 0b98 90E0      		ldi r25,hi8(0)
 2321 0b9a 00C0      		rjmp .L199
 2322               	.LVL153:
 2323               	.L200:
 2324               	.LBE196:
 2325               	.LBE195:
 2326               	.LBE194:
 2327               	.LBE193:
 2328               	.LBB197:
 2329               	.LBB198:
 2330               	.LM301:
 2331 0b9c E32F      		mov r30,r19
 2332 0b9e F0E0      		ldi r31,lo8(0)
 2333 0ba0 E050      		subi r30,lo8(-(DispBuf))
 2334 0ba2 F040      		sbci r31,hi8(-(DispBuf))
 2335 0ba4 2083      		st Z,r18
 2336               	.L199:
 2337 0ba6 382F      		mov r19,r24
 2338               	.LBB199:
 2339               	.LM302:
 2340 0ba8 FC01      		movw r30,r24
 2341 0baa E050      		subi r30,lo8(-(Duty))
 2342 0bac F040      		sbci r31,hi8(-(Duty))
 2343               	/* #APP */
 2344               	 ;  2641 "FuncGen.c" 1
 2345 0bae 2491      		lpm r18, Z
 2346               		
 2347               	 ;  0 "" 2
 2348               	/* #NOAPP */
 2349 0bb0 0196      		adiw r24,1
 2350               	.LBE199:
 2351 0bb2 2223      		tst r18
 2352 0bb4 01F4      		brne .L200
 2353               	.LBE198:
 2354               	.LBE197:
 2355               	.LM303:
 2356 0bb6 6091 0000 		lds r22,miniDDS+61
 2357 0bba 70E0      		ldi r23,lo8(0)
 2358 0bbc 80E0      		ldi r24,lo8(0)
 2359 0bbe 90E0      		ldi r25,hi8(0)
 2360 0bc0 40E0      		ldi r20,lo8(Strbuf)
 2361 0bc2 50E0      		ldi r21,hi8(Strbuf)
 2362 0bc4 0E94 0000 		call BinToDec32
 2363               	.LVL154:
 2364 0bc8 20E0      		ldi r18,lo8(0)
 2365 0bca 30E0      		ldi r19,hi8(0)
 2366               	.LM304:
 2367 0bcc 90E2      		ldi r25,lo8(32)
 2368               	.L202:
 2369               	.LM305:
 2370 0bce F901      		movw r30,r18
 2371 0bd0 E050      		subi r30,lo8(-(Strbuf))
 2372 0bd2 F040      		sbci r31,hi8(-(Strbuf))
 2373 0bd4 8081      		ld r24,Z
 2374 0bd6 8033      		cpi r24,lo8(48)
 2375 0bd8 01F0      		breq .L201
 2376               	.L203:
 2377               	.LM306:
 2378 0bda 8091 0000 		lds r24,Strbuf+7
 2379 0bde 8093 0000 		sts DispBuf+17,r24
 2380 0be2 8091 0000 		lds r24,Strbuf+8
 2381 0be6 8093 0000 		sts DispBuf+18,r24
 2382 0bea 8091 0000 		lds r24,Strbuf+9
 2383 0bee 8093 0000 		sts DispBuf+19,r24
 2384               	.LM307:
 2385 0bf2 8091 0000 		lds r24,Flags
 2386 0bf6 8068      		ori r24,lo8(-128)
 2387 0bf8 8093 0000 		sts Flags,r24
 2388               	.LM308:
 2389 0bfc 0E94 0000 		call SendDDS
 2390               	/* epilogue start */
 2391               	.LM309:
 2392 0c00 0895      		ret
 2393               	.L201:
 2394               	.LM310:
 2395 0c02 9083      		st Z,r25
 2396 0c04 2F5F      		subi r18,lo8(-(1))
 2397 0c06 3F4F      		sbci r19,hi8(-(1))
 2398               	.LM311:
 2399 0c08 2930      		cpi r18,9
 2400 0c0a 3105      		cpc r19,__zero_reg__
 2401 0c0c 01F4      		brne .L202
 2402 0c0e 00C0      		rjmp .L203
 2403               	.LFE64:
 2405               	.global	DutyInputHandle
 2407               	DutyInputHandle:
 2408               	.LFB51:
 2409               	.LM312:
 2410               	/* prologue: function */
 2411               	/* frame size = 0 */
 2412               	.LM313:
 2413 0c10 8091 0000 		lds r24,NumInput+11
 2414 0c14 8F50      		subi r24,lo8(-(-15))
 2415 0c16 8230      		cpi r24,lo8(2)
 2416 0c18 00F4      		brsh .L208
 2417               	.LM314:
 2418 0c1a 0E94 0000 		call CalWholePart
 2419 0c1e 8823      		tst r24
 2420 0c20 01F0      		breq .L208
 2421               	.LM315:
 2422 0c22 8091 0000 		lds r24,NumInput+7
 2423 0c26 9091 0000 		lds r25,(NumInput+7)+1
 2424 0c2a A091 0000 		lds r26,(NumInput+7)+2
 2425 0c2e B091 0000 		lds r27,(NumInput+7)+3
 2426 0c32 8536      		cpi r24,lo8(101)
 2427 0c34 9105      		cpc r25,__zero_reg__
 2428 0c36 A105      		cpc r26,__zero_reg__
 2429 0c38 B105      		cpc r27,__zero_reg__
 2430 0c3a 00F0      		brlo .L210
 2431               	.LM316:
 2432 0c3c 84E6      		ldi r24,lo8(100)
 2433 0c3e 90E0      		ldi r25,hi8(100)
 2434 0c40 A0E0      		ldi r26,hlo8(100)
 2435 0c42 B0E0      		ldi r27,hhi8(100)
 2436 0c44 8093 0000 		sts NumInput+7,r24
 2437 0c48 9093 0000 		sts (NumInput+7)+1,r25
 2438 0c4c A093 0000 		sts (NumInput+7)+2,r26
 2439 0c50 B093 0000 		sts (NumInput+7)+3,r27
 2440               	.L210:
 2441               	.LM317:
 2442 0c54 6091 0000 		lds r22,NumInput+7
 2443 0c58 6093 0000 		sts miniDDS+61,r22
 2444               	.LM318:
 2445 0c5c 80E0      		ldi r24,lo8(miniDDS_EE+61)
 2446 0c5e 90E0      		ldi r25,hi8(miniDDS_EE+61)
 2447 0c60 0E94 0000 		call EE_Write
 2448               	.L208:
 2449               	.LM319:
 2450 0c64 0E94 0000 		call ShowDuty
 2451               	/* epilogue start */
 2452               	.LM320:
 2453 0c68 0895      		ret
 2454               	.LFE51:
 2456               	.global	SetDuty
 2458               	SetDuty:
 2459               	.LFB28:
 2460               	.LM321:
 2461               	/* prologue: function */
 2462               	/* frame size = 0 */
 2463               	.LM322:
 2464 0c6a 0E94 0000 		call ShowDuty
 2465               	.LM323:
 2466 0c6e 81E1      		ldi r24,lo8(17)
 2467 0c70 65E0      		ldi r22,lo8(5)
 2468 0c72 4CE0      		ldi r20,lo8(12)
 2469 0c74 20E0      		ldi r18,lo8(gs(DutyInputHandle))
 2470 0c76 30E0      		ldi r19,hi8(gs(DutyInputHandle))
 2471 0c78 0E94 0000 		call NumInputSetup
 2472               	.LM324:
 2473 0c7c 0E94 0000 		call DisplayInputBuf
 2474               	/* epilogue start */
 2475               	.LM325:
 2476 0c80 0895      		ret
 2477               	.LFE28:
 2479               	.global	ShowFreqPeroid
 2481               	ShowFreqPeroid:
 2482               	.LFB53:
 2483               	.LM326:
 2484               	/* prologue: function */
 2485               	/* frame size = 0 */
 2486               	.LM327:
 2487 0c82 6091 0000 		lds r22,miniDDS+1
 2488 0c86 7091 0000 		lds r23,(miniDDS+1)+1
 2489 0c8a 8091 0000 		lds r24,(miniDDS+1)+2
 2490 0c8e 9091 0000 		lds r25,(miniDDS+1)+3
 2491 0c92 40E0      		ldi r20,lo8(Strbuf)
 2492 0c94 50E0      		ldi r21,hi8(Strbuf)
 2493 0c96 0E94 0000 		call BinToDec32
 2494 0c9a 82E0      		ldi r24,lo8(2)
 2495 0c9c 90E0      		ldi r25,hi8(2)
 2496               	.LBB200:
 2497               	.LBB201:
 2498               	.LM328:
 2499 0c9e 20E2      		ldi r18,lo8(32)
 2500               	.L215:
 2501 0ca0 FC01      		movw r30,r24
 2502 0ca2 E050      		subi r30,lo8(-(DispBuf))
 2503 0ca4 F040      		sbci r31,hi8(-(DispBuf))
 2504 0ca6 2083      		st Z,r18
 2505 0ca8 0196      		adiw r24,1
 2506               	.LM329:
 2507 0caa 8C30      		cpi r24,12
 2508 0cac 9105      		cpc r25,__zero_reg__
 2509 0cae 01F4      		brne .L215
 2510               	.LBE201:
 2511               	.LBE200:
 2512               	.LM330:
 2513 0cb0 E091 0000 		lds r30,miniDDS+6
 2514 0cb4 8E2F      		mov r24,r30
 2515 0cb6 8150      		subi r24,lo8(-(-1))
 2516 0cb8 8230      		cpi r24,lo8(2)
 2517 0cba 00F4      		brsh .L216
 2518 0cbc 46E0      		ldi r20,lo8(6)
 2519               	.LVL155:
 2520 0cbe 00C0      		rjmp .L217
 2521               	.LVL156:
 2522               	.L216:
 2523 0cc0 49E0      		ldi r20,lo8(9)
 2524               	.LVL157:
 2525               	.L217:
 2526 0cc2 24E0      		ldi r18,lo8(4)
 2527 0cc4 30E0      		ldi r19,hi8(4)
 2528               	.LM331:
 2529 0cc6 50E2      		ldi r21,lo8(32)
 2530               	.LVL158:
 2531               	.L219:
 2532               	.LM332:
 2533 0cc8 922F      		mov r25,r18
 2534               	.LM333:
 2535 0cca D901      		movw r26,r18
 2536 0ccc A050      		subi r26,lo8(-(Strbuf))
 2537 0cce B040      		sbci r27,hi8(-(Strbuf))
 2538 0cd0 8C91      		ld r24,X
 2539 0cd2 8033      		cpi r24,lo8(48)
 2540 0cd4 01F4      		brne .L218
 2541               	.LM334:
 2542 0cd6 5C93      		st X,r21
 2543 0cd8 9F5F      		subi r25,lo8(-(1))
 2544 0cda 2F5F      		subi r18,lo8(-(1))
 2545 0cdc 3F4F      		sbci r19,hi8(-(1))
 2546               	.LM335:
 2547 0cde 2417      		cp r18,r20
 2548 0ce0 00F0      		brlo .L219
 2549               	.L218:
 2550               	.LM336:
 2551 0ce2 8091 0000 		lds r24,Strbuf+4
 2552 0ce6 8093 0000 		sts DispBuf+1,r24
 2553               	.LM337:
 2554 0cea 8091 0000 		lds r24,Strbuf+5
 2555 0cee 8093 0000 		sts DispBuf+2,r24
 2556               	.LM338:
 2557 0cf2 8091 0000 		lds r24,Strbuf+6
 2558 0cf6 8093 0000 		sts DispBuf+3,r24
 2559               	.LM339:
 2560 0cfa EE23      		tst r30
 2561 0cfc 01F0      		breq .L220
 2562 0cfe E330      		cpi r30,lo8(3)
 2563 0d00 01F4      		brne .L221
 2564               	.L220:
 2565               	.LM340:
 2566 0d02 9730      		cpi r25,lo8(7)
 2567 0d04 00F0      		brlo .L222
 2568 0d06 80E2      		ldi r24,lo8(32)
 2569 0d08 00C0      		rjmp .L230
 2570               	.L222:
 2571 0d0a 8CE2      		ldi r24,lo8(44)
 2572 0d0c 00C0      		rjmp .L230
 2573               	.L221:
 2574               	.LM341:
 2575 0d0e 8EE2      		ldi r24,lo8(46)
 2576               	.L230:
 2577 0d10 8093 0000 		sts DispBuf+4,r24
 2578               	.LM342:
 2579 0d14 8091 0000 		lds r24,Strbuf+7
 2580 0d18 8093 0000 		sts DispBuf+5,r24
 2581               	.LM343:
 2582 0d1c 8091 0000 		lds r24,Strbuf+8
 2583 0d20 8093 0000 		sts DispBuf+6,r24
 2584               	.LM344:
 2585 0d24 8091 0000 		lds r24,Strbuf+9
 2586 0d28 8093 0000 		sts DispBuf+7,r24
 2587               	.LM345:
 2588 0d2c 85E0      		ldi r24,lo8(5)
 2589 0d2e E89F      		mul r30,r24
 2590 0d30 C001      		movw r24,r0
 2591 0d32 1124      		clr r1
 2592               	.LVL159:
 2593 0d34 8050      		subi r24,lo8(-(Unit_Symbols))
 2594 0d36 9040      		sbci r25,hi8(-(Unit_Symbols))
 2595 0d38 28E0      		ldi r18,lo8(8)
 2596               	.LVL160:
 2597 0d3a 00C0      		rjmp .L225
 2598               	.LVL161:
 2599               	.L226:
 2600               	.LBB202:
 2601               	.LBB203:
 2602               	.LM346:
 2603 0d3c E22F      		mov r30,r18
 2604               	.LVL162:
 2605 0d3e F0E0      		ldi r31,lo8(0)
 2606 0d40 E050      		subi r30,lo8(-(DispBuf))
 2607 0d42 F040      		sbci r31,hi8(-(DispBuf))
 2608 0d44 3083      		st Z,r19
 2609 0d46 2F5F      		subi r18,lo8(-(1))
 2610               	.L225:
 2611 0d48 FC01      		movw r30,r24
 2612               	.LVL163:
 2613               	.LBB204:
 2614               	.LM347:
 2615 0d4a 0196      		adiw r24,1
 2616               	/* #APP */
 2617               	 ;  2641 "FuncGen.c" 1
 2618 0d4c 3491      		lpm r19, Z
 2619               		
 2620               	 ;  0 "" 2
 2621               	/* #NOAPP */
 2622               	.LBE204:
 2623 0d4e 3323      		tst r19
 2624 0d50 01F4      		brne .L226
 2625               	.LBE203:
 2626               	.LBE202:
 2627               	.LM348:
 2628 0d52 0E94 0000 		call ShowFocus
 2629               	.LVL164:
 2630               	.LM349:
 2631 0d56 8091 0000 		lds r24,Flags
 2632 0d5a 8068      		ori r24,lo8(-128)
 2633 0d5c 8093 0000 		sts Flags,r24
 2634               	.LM350:
 2635 0d60 0E94 0000 		call SendDDS
 2636               	/* epilogue start */
 2637               	.LM351:
 2638 0d64 0895      		ret
 2639               	.LFE53:
 2641               	.global	FreqInputHandle
 2643               	FreqInputHandle:
 2644               	.LFB43:
 2645               	.LM352:
 2646 0d66 EF92      		push r14
 2647 0d68 FF92      		push r15
 2648 0d6a 0F93      		push r16
 2649 0d6c 1F93      		push r17
 2650               	/* prologue: function */
 2651               	/* frame size = 0 */
 2652               	.LM353:
 2653 0d6e E090 0000 		lds r14,miniDDS+1
 2654 0d72 F090 0000 		lds r15,(miniDDS+1)+1
 2655 0d76 0091 0000 		lds r16,(miniDDS+1)+2
 2656 0d7a 1091 0000 		lds r17,(miniDDS+1)+3
 2657               	.LVL165:
 2658               	.LM354:
 2659 0d7e 8091 0000 		lds r24,NumInput+11
 2660 0d82 8F30      		cpi r24,lo8(15)
 2661 0d84 01F0      		breq .L233
 2662 0d86 8031      		cpi r24,lo8(16)
 2663 0d88 01F0      		breq .+2
 2664 0d8a 00C0      		rjmp .L249
 2665 0d8c 00C0      		rjmp .L252
 2666               	.L233:
 2667               	.LM355:
 2668 0d8e 8091 0000 		lds r24,DispBuf
 2669 0d92 8634      		cpi r24,lo8(70)
 2670 0d94 01F4      		brne .L235
 2671               	.LM356:
 2672 0d96 1092 0000 		sts miniDDS+5,__zero_reg__
 2673               	.LM357:
 2674 0d9a 1092 0000 		sts miniDDS+6,__zero_reg__
 2675 0d9e 00C0      		rjmp .L236
 2676               	.L235:
 2677               	.LM358:
 2678 0da0 81E0      		ldi r24,lo8(1)
 2679 0da2 8093 0000 		sts miniDDS+5,r24
 2680               	.LM359:
 2681 0da6 82E0      		ldi r24,lo8(2)
 2682 0da8 00C0      		rjmp .L247
 2683               	.L252:
 2684               	.LM360:
 2685 0daa 8091 0000 		lds r24,DispBuf
 2686 0dae 8634      		cpi r24,lo8(70)
 2687 0db0 01F4      		brne .L237
 2688               	.LM361:
 2689 0db2 1092 0000 		sts miniDDS+5,__zero_reg__
 2690               	.LM362:
 2691 0db6 81E0      		ldi r24,lo8(1)
 2692 0db8 00C0      		rjmp .L247
 2693               	.L237:
 2694               	.LM363:
 2695 0dba 81E0      		ldi r24,lo8(1)
 2696 0dbc 8093 0000 		sts miniDDS+5,r24
 2697               	.LM364:
 2698 0dc0 83E0      		ldi r24,lo8(3)
 2699               	.L247:
 2700 0dc2 8093 0000 		sts miniDDS+6,r24
 2701               	.L236:
 2702               	.LM365:
 2703 0dc6 8091 0000 		lds r24,miniDDS+6
 2704 0dca 8823      		tst r24
 2705 0dcc 01F0      		breq .L239
 2706 0dce 8330      		cpi r24,lo8(3)
 2707 0dd0 01F4      		brne .L240
 2708               	.L239:
 2709               	.LM366:
 2710 0dd2 0E94 0000 		call CalWholePart
 2711 0dd6 00C0      		rjmp .L251
 2712               	.L240:
 2713               	.LM367:
 2714 0dd8 8150      		subi r24,lo8(-(-1))
 2715 0dda 8230      		cpi r24,lo8(2)
 2716 0ddc 00F4      		brsh .L241
 2717               	.LM368:
 2718 0dde 0E94 0000 		call CalValue
 2719               	.L251:
 2720 0de2 8823      		tst r24
 2721 0de4 01F0      		breq .L241
 2722               	.LM369:
 2723 0de6 E090 0000 		lds r14,NumInput+7
 2724 0dea F090 0000 		lds r15,(NumInput+7)+1
 2725 0dee 0091 0000 		lds r16,(NumInput+7)+2
 2726 0df2 1091 0000 		lds r17,(NumInput+7)+3
 2727               	.L241:
 2728               	.LM370:
 2729 0df6 8091 0000 		lds r24,miniDDS+5
 2730 0dfa 8130      		cpi r24,lo8(1)
 2731 0dfc 01F4      		brne .L242
 2732 0dfe E114      		cp r14,__zero_reg__
 2733 0e00 F104      		cpc r15,__zero_reg__
 2734 0e02 0105      		cpc r16,__zero_reg__
 2735 0e04 1105      		cpc r17,__zero_reg__
 2736 0e06 01F0      		breq .L243
 2737               	.L242:
 2738               	.LBB205:
 2739               	.LBB206:
 2740               	.LM371:
 2741 0e08 D801      		movw r26,r16
 2742 0e0a C701      		movw r24,r14
 2743 0e0c 8034      		cpi r24,lo8(1000000)
 2744 0e0e 22E4      		ldi r18,hi8(1000000)
 2745 0e10 9207      		cpc r25,r18
 2746 0e12 2FE0      		ldi r18,hlo8(1000000)
 2747 0e14 A207      		cpc r26,r18
 2748 0e16 20E0      		ldi r18,hhi8(1000000)
 2749 0e18 B207      		cpc r27,r18
 2750 0e1a 00F0      		brlo .L244
 2751               	.LVL166:
 2752 0e1c 8FE3      		ldi r24,lo8(999999)
 2753 0e1e 92E4      		ldi r25,hi8(999999)
 2754 0e20 AFE0      		ldi r26,hlo8(999999)
 2755 0e22 B0E0      		ldi r27,hhi8(999999)
 2756               	.LVL167:
 2757               	.L244:
 2758 0e24 8093 0000 		sts miniDDS+1,r24
 2759 0e28 9093 0000 		sts (miniDDS+1)+1,r25
 2760 0e2c A093 0000 		sts (miniDDS+1)+2,r26
 2761 0e30 B093 0000 		sts (miniDDS+1)+3,r27
 2762               	.LVL168:
 2763               	.L243:
 2764               	.LBE206:
 2765               	.LBE205:
 2766               	.LM372:
 2767 0e34 0E94 0000 		call SaveSetting
 2768               	.L249:
 2769               	.LM373:
 2770 0e38 0E94 0000 		call ShowFreqPeroid
 2771               	/* epilogue start */
 2772               	.LM374:
 2773 0e3c 1F91      		pop r17
 2774 0e3e 0F91      		pop r16
 2775 0e40 FF90      		pop r15
 2776 0e42 EF90      		pop r14
 2777               	.LVL169:
 2778 0e44 0895      		ret
 2779               	.LFE43:
 2781               	.global	LoadUserWaveform
 2783               	LoadUserWaveform:
 2784               	.LFB70:
 2785               	.LM375:
 2786 0e46 AF92      		push r10
 2787 0e48 BF92      		push r11
 2788 0e4a CF92      		push r12
 2789 0e4c DF92      		push r13
 2790 0e4e EF92      		push r14
 2791 0e50 FF92      		push r15
 2792 0e52 0F93      		push r16
 2793 0e54 1F93      		push r17
 2794 0e56 DF93      		push r29
 2795 0e58 CF93      		push r28
 2796 0e5a 00D0      		rcall .
 2797 0e5c CDB7      		in r28,__SP_L__
 2798 0e5e DEB7      		in r29,__SP_H__
 2799               	/* prologue: function */
 2800               	/* frame size = 2 */
 2801               	.LM376:
 2802 0e60 00E0      		ldi r16,lo8(0)
 2803               	.LVL170:
 2804               	.LM377:
 2805 0e62 7EE0      		ldi r23,lo8(14)
 2806 0e64 C72E      		mov r12,r23
 2807               	.LM378:
 2808 0e66 68E0      		ldi r22,lo8(8)
 2809 0e68 D62E      		mov r13,r22
 2810               	.LM379:
 2811 0e6a 50E4      		ldi r21,lo8(-25536)
 2812 0e6c E52E      		mov r14,r21
 2813 0e6e 5CE9      		ldi r21,hi8(-25536)
 2814 0e70 F52E      		mov r15,r21
 2815               	.LVL171:
 2816               	.L264:
 2817               	.LM380:
 2818 0e72 C092 0000 		sts Strbuf,r12
 2819               	.LM381:
 2820 0e76 D092 0000 		sts Strbuf+1,r13
 2821               	.LM382:
 2822 0e7a 202F      		mov r18,r16
 2823 0e7c 30E0      		ldi r19,lo8(0)
 2824 0e7e C901      		movw r24,r18
 2825 0e80 43E0      		ldi r20,3
 2826 0e82 880F      	1:	lsl r24
 2827 0e84 991F      		rol r25
 2828 0e86 4A95      		dec r20
 2829 0e88 01F4      		brne 1b
 2830 0e8a 8093 0000 		sts Strbuf+2,r24
 2831               	.LM383:
 2832 0e8e C901      		movw r24,r18
 2833               	.LVL172:
 2834 0e90 8096      		adiw r24,32
 2835 0e92 23E0      		ldi r18,3
 2836 0e94 880F      	1:	lsl r24
 2837 0e96 991F      		rol r25
 2838 0e98 2A95      		dec r18
 2839 0e9a 01F4      		brne 1b
 2840 0e9c 13E0      		ldi r17,lo8(3)
 2841 0e9e A12E      		mov r10,r17
 2842 0ea0 B12C      		mov r11,__zero_reg__
 2843               	.LVL173:
 2844               	.L254:
 2845               	.LM384:
 2846 0ea2 9C01      		movw r18,r24
 2847 0ea4 2F5F      		subi r18,lo8(-(1))
 2848 0ea6 3F4F      		sbci r19,hi8(-(1))
 2849 0ea8 3A83      		std Y+2,r19
 2850 0eaa 2983      		std Y+1,r18
 2851               	.LVL174:
 2852 0eac 0E94 0000 		call EE_Read
 2853 0eb0 F501      		movw r30,r10
 2854 0eb2 E050      		subi r30,lo8(-(Strbuf))
 2855 0eb4 F040      		sbci r31,hi8(-(Strbuf))
 2856 0eb6 8083      		st Z,r24
 2857 0eb8 0894      		sec
 2858 0eba A11C      		adc r10,__zero_reg__
 2859 0ebc B11C      		adc r11,__zero_reg__
 2860 0ebe 8981      		ldd r24,Y+1
 2861 0ec0 9A81      		ldd r25,Y+2
 2862               	.LM385:
 2863 0ec2 3BE0      		ldi r19,lo8(11)
 2864 0ec4 A316      		cp r10,r19
 2865 0ec6 B104      		cpc r11,__zero_reg__
 2866 0ec8 01F4      		brne .L254
 2867               	.LVL175:
 2868               	.LM386:
 2869 0eca 80E0      		ldi r24,lo8(Strbuf)
 2870 0ecc 90E0      		ldi r25,hi8(Strbuf)
 2871               	.LVL176:
 2872 0ece 0E94 0000 		call SendBuf
 2873               	.LM387:
 2874 0ed2 88EE      		ldi r24,lo8(1000)
 2875 0ed4 93E0      		ldi r25,hi8(1000)
 2876 0ed6 0E94 0000 		call Delay
 2877               	.LM388:
 2878 0eda F092 0000 		sts (GTimer)+1,r15
 2879 0ede E092 0000 		sts GTimer,r14
 2880 0ee2 00C0      		rjmp .L255
 2881               	.L258:
 2882               	.LM389:
 2883 0ee4 4A99      		sbic 41-32,2
 2884 0ee6 00C0      		rjmp .L255
 2885               	.LM390:
 2886 0ee8 0E94 0000 		call RecvByte
 2887 0eec 182F      		mov r17,r24
 2888               	.LVL177:
 2889               	.LM391:
 2890 0eee 80E5      		ldi r24,lo8(-15536)
 2891 0ef0 93EC      		ldi r25,hi8(-15536)
 2892 0ef2 0E94 0000 		call Delay
 2893               	.LM392:
 2894 0ef6 1D33      		cpi r17,lo8(61)
 2895 0ef8 01F0      		breq .+2
 2896 0efa 00C0      		rjmp .L264
 2897 0efc 00C0      		rjmp .L265
 2898               	.LVL178:
 2899               	.L255:
 2900               	.LM393:
 2901 0efe 8091 0000 		lds r24,GTimer
 2902 0f02 9091 0000 		lds r25,(GTimer)+1
 2903 0f06 892B      		or r24,r25
 2904 0f08 01F4      		brne .L258
 2905 0f0a 00C0      		rjmp .L264
 2906               	.LVL179:
 2907               	.L265:
 2908               	.LM394:
 2909 0f0c 0F5F      		subi r16,lo8(-(1))
 2910               	.LM395:
 2911 0f0e 0032      		cpi r16,lo8(32)
 2912 0f10 00F4      		brsh .+2
 2913 0f12 00C0      		rjmp .L264
 2914               	/* epilogue start */
 2915               	.LM396:
 2916 0f14 0F90      		pop __tmp_reg__
 2917 0f16 0F90      		pop __tmp_reg__
 2918 0f18 CF91      		pop r28
 2919 0f1a DF91      		pop r29
 2920 0f1c 1F91      		pop r17
 2921               	.LVL180:
 2922 0f1e 0F91      		pop r16
 2923               	.LVL181:
 2924 0f20 FF90      		pop r15
 2925 0f22 EF90      		pop r14
 2926 0f24 DF90      		pop r13
 2927 0f26 CF90      		pop r12
 2928 0f28 BF90      		pop r11
 2929 0f2a AF90      		pop r10
 2930 0f2c 0895      		ret
 2931               	.LFE70:
 2933               	.global	ShowSVParam
 2935               	ShowSVParam:
 2936               	.LFB62:
 2937               	.LM397:
 2938               	/* prologue: function */
 2939               	/* frame size = 0 */
 2940               	.LM398:
 2941 0f2e 80E0      		ldi r24,lo8(0)
 2942 0f30 90E0      		ldi r25,hi8(0)
 2943               	.LBB207:
 2944               	.LBB208:
 2945               	.LBB209:
 2946               	.LBB210:
 2947               	.LM399:
 2948 0f32 20E2      		ldi r18,lo8(32)
 2949               	.L267:
 2950 0f34 FC01      		movw r30,r24
 2951 0f36 E050      		subi r30,lo8(-(DispBuf))
 2952 0f38 F040      		sbci r31,hi8(-(DispBuf))
 2953 0f3a 2083      		st Z,r18
 2954 0f3c 0196      		adiw r24,1
 2955               	.LM400:
 2956 0f3e 8032      		cpi r24,32
 2957 0f40 9105      		cpc r25,__zero_reg__
 2958 0f42 01F4      		brne .L267
 2959               	.LBE210:
 2960               	.LBE209:
 2961               	.LBE208:
 2962               	.LBE207:
 2963               	.LM401:
 2964 0f44 6091 0000 		lds r22,CurrParam
 2965 0f48 A62F      		mov r26,r22
 2966 0f4a B0E0      		ldi r27,lo8(0)
 2967 0f4c CD01      		movw r24,r26
 2968               	.LVL182:
 2969 0f4e 880F      		lsl r24
 2970 0f50 991F      		rol r25
 2971 0f52 8A0F      		add r24,r26
 2972 0f54 9B1F      		adc r25,r27
 2973 0f56 880F      		lsl r24
 2974 0f58 991F      		rol r25
 2975 0f5a 880F      		lsl r24
 2976 0f5c 991F      		rol r25
 2977 0f5e 8050      		subi r24,lo8(-(ServoParamNames))
 2978 0f60 9040      		sbci r25,hi8(-(ServoParamNames))
 2979 0f62 9C01      		movw r18,r24
 2980 0f64 00C0      		rjmp .L268
 2981               	.LVL183:
 2982               	.L269:
 2983               	.LBB211:
 2984               	.LBB212:
 2985               	.LM402:
 2986 0f66 E52F      		mov r30,r21
 2987               	.LVL184:
 2988 0f68 F0E0      		ldi r31,lo8(0)
 2989 0f6a E050      		subi r30,lo8(-(DispBuf))
 2990 0f6c F040      		sbci r31,hi8(-(DispBuf))
 2991 0f6e 4083      		st Z,r20
 2992               	.LVL185:
 2993               	.L268:
 2994 0f70 522F      		mov r21,r18
 2995               	.LVL186:
 2996 0f72 581B      		sub r21,r24
 2997 0f74 F901      		movw r30,r18
 2998               	.LVL187:
 2999               	.LBB213:
 3000               	.LM403:
 3001 0f76 2F5F      		subi r18,lo8(-(1))
 3002 0f78 3F4F      		sbci r19,hi8(-(1))
 3003               	.LVL188:
 3004               	/* #APP */
 3005               	 ;  2641 "FuncGen.c" 1
 3006 0f7a 4491      		lpm r20, Z
 3007               		
 3008               	 ;  0 "" 2
 3009               	/* #NOAPP */
 3010               	.LBE213:
 3011 0f7c 4423      		tst r20
 3012 0f7e 01F4      		brne .L269
 3013               	.LBE212:
 3014               	.LBE211:
 3015               	.LM404:
 3016 0f80 CD01      		movw r24,r26
 3017               	.LVL189:
 3018 0f82 880F      		lsl r24
 3019 0f84 991F      		rol r25
 3020 0f86 880F      		lsl r24
 3021 0f88 991F      		rol r25
 3022 0f8a 8A0F      		add r24,r26
 3023 0f8c 9B1F      		adc r25,r27
 3024 0f8e 8050      		subi r24,lo8(-(ServoParamIndex))
 3025 0f90 9040      		sbci r25,hi8(-(ServoParamIndex))
 3026 0f92 2DE0      		ldi r18,lo8(13)
 3027               	.LVL190:
 3028 0f94 00C0      		rjmp .L270
 3029               	.LVL191:
 3030               	.L271:
 3031               	.LBB214:
 3032               	.LBB215:
 3033               	.LM405:
 3034 0f96 E22F      		mov r30,r18
 3035               	.LVL192:
 3036 0f98 F0E0      		ldi r31,lo8(0)
 3037 0f9a E050      		subi r30,lo8(-(DispBuf))
 3038 0f9c F040      		sbci r31,hi8(-(DispBuf))
 3039 0f9e 3083      		st Z,r19
 3040 0fa0 2F5F      		subi r18,lo8(-(1))
 3041               	.LVL193:
 3042               	.L270:
 3043 0fa2 FC01      		movw r30,r24
 3044               	.LVL194:
 3045               	.LBB216:
 3046               	.LM406:
 3047 0fa4 0196      		adiw r24,1
 3048               	/* #APP */
 3049               	 ;  2641 "FuncGen.c" 1
 3050 0fa6 3491      		lpm r19, Z
 3051               		
 3052               	 ;  0 "" 2
 3053               	/* #NOAPP */
 3054               	.LBE216:
 3055 0fa8 3323      		tst r19
 3056 0faa 01F4      		brne .L271
 3057               	.LBE215:
 3058               	.LBE214:
 3059               	.LM407:
 3060 0fac CD01      		movw r24,r26
 3061               	.LVL195:
 3062 0fae 23E0      		ldi r18,3
 3063 0fb0 880F      	1:	lsl r24
 3064 0fb2 991F      		rol r25
 3065 0fb4 2A95      		dec r18
 3066 0fb6 01F4      		brne 1b
 3067               	.LVL196:
 3068 0fb8 8A1B      		sub r24,r26
 3069 0fba 9B0B      		sbc r25,r27
 3070 0fbc 8050      		subi r24,lo8(-(ServoParamUnits))
 3071 0fbe 9040      		sbci r25,hi8(-(ServoParamUnits))
 3072 0fc0 27E1      		ldi r18,lo8(23)
 3073               	.LVL197:
 3074 0fc2 00C0      		rjmp .L272
 3075               	.LVL198:
 3076               	.L273:
 3077               	.LBB217:
 3078               	.LBB218:
 3079               	.LM408:
 3080 0fc4 E22F      		mov r30,r18
 3081               	.LVL199:
 3082 0fc6 F0E0      		ldi r31,lo8(0)
 3083 0fc8 E050      		subi r30,lo8(-(DispBuf))
 3084 0fca F040      		sbci r31,hi8(-(DispBuf))
 3085 0fcc 3083      		st Z,r19
 3086 0fce 2F5F      		subi r18,lo8(-(1))
 3087               	.LVL200:
 3088               	.L272:
 3089 0fd0 FC01      		movw r30,r24
 3090               	.LVL201:
 3091               	.LBB219:
 3092               	.LM409:
 3093 0fd2 0196      		adiw r24,1
 3094               	/* #APP */
 3095               	 ;  2641 "FuncGen.c" 1
 3096 0fd4 3491      		lpm r19, Z
 3097               		
 3098               	 ;  0 "" 2
 3099               	.LVL202:
 3100               	/* #NOAPP */
 3101               	.LBE219:
 3102 0fd6 3323      		tst r19
 3103 0fd8 01F4      		brne .L273
 3104               	.LBE218:
 3105               	.LBE217:
 3106               	.LM410:
 3107 0fda 6530      		cpi r22,lo8(5)
 3108 0fdc 01F0      		breq .L276
 3109 0fde 6530      		cpi r22,lo8(5)
 3110 0fe0 00F0      		brlo .L275
 3111 0fe2 6730      		cpi r22,lo8(7)
 3112 0fe4 01F0      		breq .L276
 3113 0fe6 6730      		cpi r22,lo8(7)
 3114 0fe8 00F0      		brlo .L275
 3115 0fea 6830      		cpi r22,lo8(8)
 3116 0fec 01F0      		breq .+2
 3117 0fee 00C0      		rjmp .L274
 3118 0ff0 80E0      		ldi r24,lo8(0)
 3119 0ff2 90E0      		ldi r25,hi8(0)
 3120               	.LVL203:
 3121 0ff4 00C0      		rjmp .L278
 3122               	.LVL204:
 3123               	.L275:
 3124               	.LM411:
 3125 0ff6 AA0F      		lsl r26
 3126 0ff8 BB1F      		rol r27
 3127 0ffa A050      		subi r26,lo8(-(miniDDS+28))
 3128 0ffc B040      		sbci r27,hi8(-(miniDDS+28))
 3129 0ffe 8D91      		ld r24,X+
 3130 1000 9C91      		ld r25,X
 3131               	.LVL205:
 3132 1002 A0E0      		ldi r26,lo8(0)
 3133 1004 B0E0      		ldi r27,hi8(0)
 3134 1006 8093 0000 		sts NumString,r24
 3135 100a 9093 0000 		sts (NumString)+1,r25
 3136 100e A093 0000 		sts (NumString)+2,r26
 3137 1012 B093 0000 		sts (NumString)+3,r27
 3138               	.LM412:
 3139 1016 1092 0000 		sts NumString+4,__zero_reg__
 3140               	.LM413:
 3141 101a 80E0      		ldi r24,lo8(Strbuf)
 3142 101c 90E0      		ldi r25,hi8(Strbuf)
 3143 101e 9093 0000 		sts (NumString+6)+1,r25
 3144 1022 8093 0000 		sts NumString+6,r24
 3145               	.LM414:
 3146 1026 80E0      		ldi r24,lo8(NumString)
 3147 1028 90E0      		ldi r25,hi8(NumString)
 3148 102a 0E94 0000 		call BinToStr
 3149               	.LVL206:
 3150 102e 25E0      		ldi r18,lo8(5)
 3151 1030 30E0      		ldi r19,hi8(5)
 3152               	.L279:
 3153               	.LM415:
 3154 1032 F901      		movw r30,r18
 3155 1034 E050      		subi r30,lo8(-(Strbuf))
 3156 1036 F040      		sbci r31,hi8(-(Strbuf))
 3157 1038 8081      		ld r24,Z
 3158 103a F901      		movw r30,r18
 3159 103c E050      		subi r30,lo8(-(DispBuf+11))
 3160 103e F040      		sbci r31,hi8(-(DispBuf+11))
 3161 1040 8083      		st Z,r24
 3162 1042 2F5F      		subi r18,lo8(-(1))
 3163 1044 3F4F      		sbci r19,hi8(-(1))
 3164               	.LM416:
 3165 1046 2A30      		cpi r18,10
 3166 1048 3105      		cpc r19,__zero_reg__
 3167 104a 01F4      		brne .L279
 3168 104c 00C0      		rjmp .L274
 3169               	.LVL207:
 3170               	.L276:
 3171               	.LM417:
 3172 104e AA0F      		lsl r26
 3173 1050 BB1F      		rol r27
 3174               	.LVL208:
 3175 1052 A050      		subi r26,lo8(-(miniDDS+28))
 3176 1054 B040      		sbci r27,hi8(-(miniDDS+28))
 3177 1056 8D91      		ld r24,X+
 3178 1058 9C91      		ld r25,X
 3179               	.LVL209:
 3180 105a A0E0      		ldi r26,lo8(0)
 3181 105c B0E0      		ldi r27,hi8(0)
 3182 105e 8093 0000 		sts NumString,r24
 3183 1062 9093 0000 		sts (NumString)+1,r25
 3184 1066 A093 0000 		sts (NumString)+2,r26
 3185 106a B093 0000 		sts (NumString)+3,r27
 3186               	.LM418:
 3187 106e 83E0      		ldi r24,lo8(3)
 3188 1070 8093 0000 		sts NumString+4,r24
 3189               	.LM419:
 3190 1074 80E0      		ldi r24,lo8(Strbuf)
 3191 1076 90E0      		ldi r25,hi8(Strbuf)
 3192 1078 9093 0000 		sts (NumString+6)+1,r25
 3193 107c 8093 0000 		sts NumString+6,r24
 3194               	.LM420:
 3195 1080 80E0      		ldi r24,lo8(NumString)
 3196 1082 90E0      		ldi r25,hi8(NumString)
 3197 1084 0E94 0000 		call BinToStr
 3198               	.LVL210:
 3199 1088 23E0      		ldi r18,lo8(3)
 3200 108a 30E0      		ldi r19,hi8(3)
 3201               	.L280:
 3202               	.LM421:
 3203 108c F901      		movw r30,r18
 3204 108e E050      		subi r30,lo8(-(Strbuf))
 3205 1090 F040      		sbci r31,hi8(-(Strbuf))
 3206 1092 8081      		ld r24,Z
 3207 1094 F901      		movw r30,r18
 3208 1096 E050      		subi r30,lo8(-(DispBuf+13))
 3209 1098 F040      		sbci r31,hi8(-(DispBuf+13))
 3210 109a 8083      		st Z,r24
 3211 109c 2F5F      		subi r18,lo8(-(1))
 3212 109e 3F4F      		sbci r19,hi8(-(1))
 3213               	.LM422:
 3214 10a0 2830      		cpi r18,8
 3215 10a2 3105      		cpc r19,__zero_reg__
 3216 10a4 01F4      		brne .L280
 3217 10a6 00C0      		rjmp .L274
 3218               	.LVL211:
 3219               	.L281:
 3220               	.LBB220:
 3221               	.LBB221:
 3222               	.LM423:
 3223 10a8 E32F      		mov r30,r19
 3224 10aa F0E0      		ldi r31,lo8(0)
 3225 10ac E050      		subi r30,lo8(-(DispBuf))
 3226 10ae F040      		sbci r31,hi8(-(DispBuf))
 3227 10b0 2083      		st Z,r18
 3228               	.LVL212:
 3229               	.L278:
 3230 10b2 382F      		mov r19,r24
 3231               	.LVL213:
 3232 10b4 305F      		subi r19,lo8(-(16))
 3233               	.LBB222:
 3234               	.LM424:
 3235 10b6 FC01      		movw r30,r24
 3236               	.LVL214:
 3237 10b8 E050      		subi r30,lo8(-(ServoParamDefaultRestore))
 3238 10ba F040      		sbci r31,hi8(-(ServoParamDefaultRestore))
 3239               	/* #APP */
 3240               	 ;  2641 "FuncGen.c" 1
 3241 10bc 2491      		lpm r18, Z
 3242               		
 3243               	 ;  0 "" 2
 3244               	.LVL215:
 3245               	/* #NOAPP */
 3246 10be 0196      		adiw r24,1
 3247               	.LBE222:
 3248 10c0 2223      		tst r18
 3249 10c2 01F4      		brne .L281
 3250               	.LVL216:
 3251               	.L274:
 3252               	.LBE221:
 3253               	.LBE220:
 3254               	.LM425:
 3255 10c4 8091 0000 		lds r24,Flags
 3256               	.LVL217:
 3257 10c8 8068      		ori r24,lo8(-128)
 3258 10ca 8093 0000 		sts Flags,r24
 3259               	/* epilogue start */
 3260               	.LM426:
 3261 10ce 0895      		ret
 3262               	.LFE62:
 3264               	.global	ServoParamInputHandle
 3266               	ServoParamInputHandle:
 3267               	.LFB49:
 3268               	.LM427:
 3269               	/* prologue: function */
 3270               	/* frame size = 0 */
 3271               	.LM428:
 3272 10d0 8091 0000 		lds r24,NumInput+11
 3273 10d4 8F30      		cpi r24,lo8(15)
 3274 10d6 01F0      		breq .L288
 3275 10d8 8031      		cpi r24,lo8(16)
 3276 10da 01F4      		brne .L287
 3277 10dc 00C0      		rjmp .L300
 3278               	.L288:
 3279               	.LM429:
 3280 10de 8091 0000 		lds r24,CurrParam
 3281 10e2 8530      		cpi r24,lo8(5)
 3282 10e4 01F0      		breq .L292
 3283 10e6 8530      		cpi r24,lo8(5)
 3284 10e8 00F0      		brlo .L293
 3285 10ea 8630      		cpi r24,lo8(6)
 3286 10ec 01F0      		breq .L293
 3287 10ee 8730      		cpi r24,lo8(7)
 3288 10f0 01F4      		brne .L287
 3289 10f2 00C0      		rjmp .L292
 3290               	.L300:
 3291               	.LM430:
 3292 10f4 8091 0000 		lds r24,CurrParam
 3293 10f8 8530      		cpi r24,lo8(5)
 3294 10fa 01F0      		breq .L293
 3295 10fc 8530      		cpi r24,lo8(5)
 3296 10fe 00F0      		brlo .L292
 3297 1100 8630      		cpi r24,lo8(6)
 3298 1102 01F0      		breq .L292
 3299 1104 8730      		cpi r24,lo8(7)
 3300 1106 01F4      		brne .L287
 3301 1108 00C0      		rjmp .L293
 3302               	.L292:
 3303               	.LM431:
 3304 110a 0E94 0000 		call CalValue
 3305 110e 00C0      		rjmp .L297
 3306               	.L293:
 3307               	.LM432:
 3308 1110 0E94 0000 		call CalWholePart
 3309               	.L297:
 3310 1114 8823      		tst r24
 3311 1116 01F0      		breq .L287
 3312               	.LM433:
 3313 1118 E091 0000 		lds r30,CurrParam
 3314 111c F0E0      		ldi r31,lo8(0)
 3315 111e EE0F      		lsl r30
 3316 1120 FF1F      		rol r31
 3317 1122 E050      		subi r30,lo8(-(miniDDS+28))
 3318 1124 F040      		sbci r31,hi8(-(miniDDS+28))
 3319 1126 8091 0000 		lds r24,NumInput+7
 3320 112a 9091 0000 		lds r25,(NumInput+7)+1
 3321 112e 9183      		std Z+1,r25
 3322 1130 8083      		st Z,r24
 3323               	.L287:
 3324               	.LM434:
 3325 1132 0E94 0000 		call SaveSetting
 3326               	.LM435:
 3327 1136 0E94 0000 		call ShowSVParam
 3328               	/* epilogue start */
 3329               	.LM436:
 3330 113a 0895      		ret
 3331               	.LFE49:
 3333               	.global	ShowPW
 3335               	ShowPW:
 3336               	.LFB59:
 3337               	.LM437:
 3338               	/* prologue: function */
 3339               	/* frame size = 0 */
 3340               	.LM438:
 3341 113c 2091 0000 		lds r18,miniDDS+28
 3342 1140 3091 0000 		lds r19,(miniDDS+28)+1
 3343 1144 8091 0000 		lds r24,miniDDS+24
 3344 1148 9091 0000 		lds r25,(miniDDS+24)+1
 3345 114c 8217      		cp r24,r18
 3346 114e 9307      		cpc r25,r19
 3347 1150 00F4      		brsh .L302
 3348               	.LM439:
 3349 1152 3093 0000 		sts (miniDDS+24)+1,r19
 3350 1156 2093 0000 		sts miniDDS+24,r18
 3351               	.L302:
 3352               	.LM440:
 3353 115a 2091 0000 		lds r18,miniDDS+30
 3354 115e 3091 0000 		lds r19,(miniDDS+30)+1
 3355 1162 8091 0000 		lds r24,miniDDS+24
 3356 1166 9091 0000 		lds r25,(miniDDS+24)+1
 3357 116a 2817      		cp r18,r24
 3358 116c 3907      		cpc r19,r25
 3359 116e 00F4      		brsh .L303
 3360               	.LM441:
 3361 1170 3093 0000 		sts (miniDDS+24)+1,r19
 3362 1174 2093 0000 		sts miniDDS+24,r18
 3363               	.L303:
 3364               	.LM442:
 3365 1178 8091 0000 		lds r24,miniDDS+24
 3366 117c 9091 0000 		lds r25,(miniDDS+24)+1
 3367 1180 A0E0      		ldi r26,lo8(0)
 3368 1182 B0E0      		ldi r27,hi8(0)
 3369 1184 8093 0000 		sts NumString,r24
 3370 1188 9093 0000 		sts (NumString)+1,r25
 3371 118c A093 0000 		sts (NumString)+2,r26
 3372 1190 B093 0000 		sts (NumString)+3,r27
 3373               	.LM443:
 3374 1194 1092 0000 		sts NumString+4,__zero_reg__
 3375               	.LM444:
 3376 1198 80E0      		ldi r24,lo8(Strbuf)
 3377 119a 90E0      		ldi r25,hi8(Strbuf)
 3378 119c 9093 0000 		sts (NumString+6)+1,r25
 3379 11a0 8093 0000 		sts NumString+6,r24
 3380               	.LM445:
 3381 11a4 80E0      		ldi r24,lo8(NumString)
 3382 11a6 90E0      		ldi r25,hi8(NumString)
 3383 11a8 0E94 0000 		call BinToStr
 3384 11ac 80E0      		ldi r24,lo8(0)
 3385 11ae 90E0      		ldi r25,hi8(0)
 3386               	.LBB223:
 3387               	.LBB224:
 3388               	.LBB225:
 3389               	.LBB226:
 3390               	.LM446:
 3391 11b0 20E2      		ldi r18,lo8(32)
 3392               	.L304:
 3393 11b2 FC01      		movw r30,r24
 3394 11b4 E050      		subi r30,lo8(-(DispBuf))
 3395 11b6 F040      		sbci r31,hi8(-(DispBuf))
 3396 11b8 2083      		st Z,r18
 3397 11ba 0196      		adiw r24,1
 3398               	.LM447:
 3399 11bc 8032      		cpi r24,32
 3400 11be 9105      		cpc r25,__zero_reg__
 3401 11c0 01F4      		brne .L304
 3402 11c2 80E0      		ldi r24,lo8(0)
 3403 11c4 90E0      		ldi r25,hi8(0)
 3404 11c6 00C0      		rjmp .L305
 3405               	.LVL218:
 3406               	.L306:
 3407               	.LBE226:
 3408               	.LBE225:
 3409               	.LBE224:
 3410               	.LBE223:
 3411               	.LBB227:
 3412               	.LBB228:
 3413               	.LM448:
 3414 11c8 E32F      		mov r30,r19
 3415 11ca F0E0      		ldi r31,lo8(0)
 3416 11cc E050      		subi r30,lo8(-(DispBuf))
 3417 11ce F040      		sbci r31,hi8(-(DispBuf))
 3418 11d0 2083      		st Z,r18
 3419               	.L305:
 3420 11d2 382F      		mov r19,r24
 3421               	.LBB229:
 3422               	.LM449:
 3423 11d4 FC01      		movw r30,r24
 3424 11d6 E050      		subi r30,lo8(-(ServoPos))
 3425 11d8 F040      		sbci r31,hi8(-(ServoPos))
 3426               	/* #APP */
 3427               	 ;  2641 "FuncGen.c" 1
 3428 11da 2491      		lpm r18, Z
 3429               		
 3430               	 ;  0 "" 2
 3431               	/* #NOAPP */
 3432 11dc 0196      		adiw r24,1
 3433               	.LBE229:
 3434 11de 2223      		tst r18
 3435 11e0 01F4      		brne .L306
 3436 11e2 25E0      		ldi r18,lo8(5)
 3437 11e4 30E0      		ldi r19,hi8(5)
 3438               	.LVL219:
 3439               	.L307:
 3440               	.LBE228:
 3441               	.LBE227:
 3442               	.LM450:
 3443 11e6 F901      		movw r30,r18
 3444 11e8 E050      		subi r30,lo8(-(Strbuf))
 3445 11ea F040      		sbci r31,hi8(-(Strbuf))
 3446 11ec 8081      		ld r24,Z
 3447 11ee F901      		movw r30,r18
 3448 11f0 E050      		subi r30,lo8(-(DispBuf+15))
 3449 11f2 F040      		sbci r31,hi8(-(DispBuf+15))
 3450 11f4 8083      		st Z,r24
 3451 11f6 2F5F      		subi r18,lo8(-(1))
 3452 11f8 3F4F      		sbci r19,hi8(-(1))
 3453               	.LM451:
 3454 11fa 2A30      		cpi r18,10
 3455 11fc 3105      		cpc r19,__zero_reg__
 3456 11fe 01F4      		brne .L307
 3457               	.LM452:
 3458 1200 80E2      		ldi r24,lo8(32)
 3459 1202 8093 0000 		sts DispBuf+19,r24
 3460 1206 80E0      		ldi r24,lo8(0)
 3461 1208 90E0      		ldi r25,hi8(0)
 3462 120a 00C0      		rjmp .L308
 3463               	.LVL220:
 3464               	.L309:
 3465               	.LBB230:
 3466               	.LBB231:
 3467               	.LM453:
 3468 120c E32F      		mov r30,r19
 3469 120e F0E0      		ldi r31,lo8(0)
 3470 1210 E050      		subi r30,lo8(-(DispBuf))
 3471 1212 F040      		sbci r31,hi8(-(DispBuf))
 3472 1214 2083      		st Z,r18
 3473               	.LVL221:
 3474               	.L308:
 3475 1216 382F      		mov r19,r24
 3476               	.LVL222:
 3477 1218 305F      		subi r19,lo8(-(16))
 3478               	.LBB232:
 3479               	.LM454:
 3480 121a FC01      		movw r30,r24
 3481 121c E050      		subi r30,lo8(-(ServoPW))
 3482 121e F040      		sbci r31,hi8(-(ServoPW))
 3483               	/* #APP */
 3484               	 ;  2641 "FuncGen.c" 1
 3485 1220 2491      		lpm r18, Z
 3486               		
 3487               	 ;  0 "" 2
 3488               	/* #NOAPP */
 3489 1222 0196      		adiw r24,1
 3490               	.LBE232:
 3491 1224 2223      		tst r18
 3492 1226 01F4      		brne .L309
 3493 1228 80E0      		ldi r24,lo8(0)
 3494 122a 90E0      		ldi r25,hi8(0)
 3495 122c 00C0      		rjmp .L310
 3496               	.LVL223:
 3497               	.L311:
 3498               	.LBE231:
 3499               	.LBE230:
 3500               	.LBB233:
 3501               	.LBB234:
 3502               	.LM455:
 3503 122e E32F      		mov r30,r19
 3504 1230 F0E0      		ldi r31,lo8(0)
 3505 1232 E050      		subi r30,lo8(-(DispBuf))
 3506 1234 F040      		sbci r31,hi8(-(DispBuf))
 3507 1236 2083      		st Z,r18
 3508               	.LVL224:
 3509               	.L310:
 3510 1238 382F      		mov r19,r24
 3511               	.LVL225:
 3512 123a 365E      		subi r19,lo8(-(26))
 3513               	.LBB235:
 3514               	.LM456:
 3515 123c FC01      		movw r30,r24
 3516 123e E050      		subi r30,lo8(-(Unit_Symbols+30))
 3517 1240 F040      		sbci r31,hi8(-(Unit_Symbols+30))
 3518               	/* #APP */
 3519               	 ;  2641 "FuncGen.c" 1
 3520 1242 2491      		lpm r18, Z
 3521               		
 3522               	 ;  0 "" 2
 3523               	.LVL226:
 3524               	/* #NOAPP */
 3525 1244 0196      		adiw r24,1
 3526               	.LBE235:
 3527 1246 2223      		tst r18
 3528 1248 01F4      		brne .L311
 3529               	.LBE234:
 3530               	.LBE233:
 3531               	.LM457:
 3532 124a 8091 0000 		lds r24,Flags
 3533 124e 8068      		ori r24,lo8(-128)
 3534 1250 8093 0000 		sts Flags,r24
 3535               	.LM458:
 3536 1254 0E94 0000 		call SendServoPos
 3537               	.LVL227:
 3538               	/* epilogue start */
 3539               	.LM459:
 3540 1258 0895      		ret
 3541               	.LFE59:
 3543               	.global	PWInputHandle
 3545               	PWInputHandle:
 3546               	.LFB47:
 3547               	.LM460:
 3548               	/* prologue: function */
 3549               	/* frame size = 0 */
 3550               	.LM461:
 3551 125a 8091 0000 		lds r24,NumInput+11
 3552 125e 8F30      		cpi r24,lo8(15)
 3553 1260 01F0      		breq .L317
 3554 1262 8031      		cpi r24,lo8(16)
 3555 1264 01F4      		brne .L316
 3556 1266 00C0      		rjmp .L323
 3557               	.L317:
 3558               	.LM462:
 3559 1268 0E94 0000 		call CalWholePart
 3560 126c 00C0      		rjmp .L322
 3561               	.L323:
 3562               	.LM463:
 3563 126e 0E94 0000 		call CalValue
 3564               	.L322:
 3565 1272 8823      		tst r24
 3566 1274 01F0      		breq .L316
 3567               	.LM464:
 3568 1276 8091 0000 		lds r24,NumInput+7
 3569 127a 9091 0000 		lds r25,(NumInput+7)+1
 3570 127e 9093 0000 		sts (miniDDS+24)+1,r25
 3571 1282 8093 0000 		sts miniDDS+24,r24
 3572               	.L316:
 3573               	.LM465:
 3574 1286 0E94 0000 		call ShowPW
 3575               	.LM466:
 3576 128a 0E94 0000 		call SaveSetting
 3577               	/* epilogue start */
 3578               	.LM467:
 3579 128e 0895      		ret
 3580               	.LFE47:
 3582               	.global	SetPW
 3584               	SetPW:
 3585               	.LFB25:
 3586               	.LM468:
 3587               	/* prologue: function */
 3588               	/* frame size = 0 */
 3589               	.LM469:
 3590 1290 8091 0000 		lds r24,CurrFocus
 3591 1294 8330      		cpi r24,lo8(3)
 3592 1296 01F0      		breq .L325
 3593               	.LM470:
 3594 1298 83E0      		ldi r24,lo8(3)
 3595 129a 8093 0000 		sts CurrFocus,r24
 3596               	.LM471:
 3597 129e 0E94 0000 		call ShowPW
 3598 12a2 0895      		ret
 3599               	.L325:
 3600               	.LM472:
 3601 12a4 84E1      		ldi r24,lo8(20)
 3602 12a6 65E0      		ldi r22,lo8(5)
 3603 12a8 42E0      		ldi r20,lo8(2)
 3604 12aa 20E0      		ldi r18,lo8(gs(PWInputHandle))
 3605 12ac 30E0      		ldi r19,hi8(gs(PWInputHandle))
 3606 12ae 0E94 0000 		call NumInputSetup
 3607               	.LM473:
 3608 12b2 0E94 0000 		call DisplayInputBuf
 3609 12b6 0895      		ret
 3610               	.LFE25:
 3612               	.global	ShowAmp
 3614               	ShowAmp:
 3615               	.LFB55:
 3616               	.LM474:
 3617               	.LVL228:
 3618 12b8 1F93      		push r17
 3619               	/* prologue: function */
 3620               	/* frame size = 0 */
 3621 12ba 182F      		mov r17,r24
 3622               	.LM475:
 3623 12bc 8091 0000 		lds r24,miniDDS+7
 3624 12c0 9091 0000 		lds r25,(miniDDS+7)+1
 3625 12c4 A091 0000 		lds r26,(miniDDS+7)+2
 3626 12c8 B091 0000 		lds r27,(miniDDS+7)+3
 3627               	.LVL229:
 3628 12cc 8151      		subi r24,lo8(10001)
 3629 12ce 9742      		sbci r25,hi8(10001)
 3630 12d0 A040      		sbci r26,hlo8(10001)
 3631 12d2 B040      		sbci r27,hhi8(10001)
 3632 12d4 00F0      		brlo .L329
 3633               	.LM476:
 3634 12d6 80E1      		ldi r24,lo8(10000)
 3635 12d8 97E2      		ldi r25,hi8(10000)
 3636 12da A0E0      		ldi r26,hlo8(10000)
 3637 12dc B0E0      		ldi r27,hhi8(10000)
 3638 12de 8093 0000 		sts miniDDS+7,r24
 3639 12e2 9093 0000 		sts (miniDDS+7)+1,r25
 3640 12e6 A093 0000 		sts (miniDDS+7)+2,r26
 3641 12ea B093 0000 		sts (miniDDS+7)+3,r27
 3642               	.L329:
 3643               	.LM477:
 3644 12ee 6091 0000 		lds r22,miniDDS+7
 3645 12f2 7091 0000 		lds r23,(miniDDS+7)+1
 3646 12f6 8091 0000 		lds r24,(miniDDS+7)+2
 3647 12fa 9091 0000 		lds r25,(miniDDS+7)+3
 3648 12fe 40E0      		ldi r20,lo8(Strbuf)
 3649 1300 50E0      		ldi r21,hi8(Strbuf)
 3650 1302 0E94 0000 		call BinToDec32
 3651               	.LM478:
 3652 1306 A12F      		mov r26,r17
 3653 1308 B0E0      		ldi r27,lo8(0)
 3654 130a 8091 0000 		lds r24,Strbuf+5
 3655 130e 8033      		cpi r24,lo8(48)
 3656 1310 01F4      		brne .L330
 3657 1312 80E2      		ldi r24,lo8(32)
 3658 1314 00C0      		rjmp .L331
 3659               	.L330:
 3660 1316 8091 0000 		lds r24,Strbuf+5
 3661               	.L331:
 3662 131a FD01      		movw r30,r26
 3663 131c E050      		subi r30,lo8(-(DispBuf))
 3664 131e F040      		sbci r31,hi8(-(DispBuf))
 3665 1320 8083      		st Z,r24
 3666               	.LM479:
 3667 1322 8091 0000 		lds r24,Strbuf+6
 3668 1326 FD01      		movw r30,r26
 3669 1328 E050      		subi r30,lo8(-(DispBuf+1))
 3670 132a F040      		sbci r31,hi8(-(DispBuf+1))
 3671 132c 8083      		st Z,r24
 3672               	.LM480:
 3673 132e FD01      		movw r30,r26
 3674 1330 E050      		subi r30,lo8(-(DispBuf+2))
 3675 1332 F040      		sbci r31,hi8(-(DispBuf+2))
 3676 1334 8EE2      		ldi r24,lo8(46)
 3677 1336 8083      		st Z,r24
 3678               	.LM481:
 3679 1338 8091 0000 		lds r24,Strbuf+7
 3680 133c FD01      		movw r30,r26
 3681 133e E050      		subi r30,lo8(-(DispBuf+3))
 3682 1340 F040      		sbci r31,hi8(-(DispBuf+3))
 3683 1342 8083      		st Z,r24
 3684               	.LM482:
 3685 1344 FD01      		movw r30,r26
 3686 1346 E050      		subi r30,lo8(-(DispBuf+4))
 3687 1348 F040      		sbci r31,hi8(-(DispBuf+4))
 3688 134a 90E2      		ldi r25,lo8(32)
 3689 134c 9083      		st Z,r25
 3690               	.LM483:
 3691 134e FD01      		movw r30,r26
 3692 1350 E050      		subi r30,lo8(-(DispBuf+5))
 3693 1352 F040      		sbci r31,hi8(-(DispBuf+5))
 3694 1354 86E5      		ldi r24,lo8(86)
 3695 1356 8083      		st Z,r24
 3696               	.LM484:
 3697 1358 A050      		subi r26,lo8(-(DispBuf+6))
 3698 135a B040      		sbci r27,hi8(-(DispBuf+6))
 3699 135c 9C93      		st X,r25
 3700               	.LM485:
 3701 135e 8091 0000 		lds r24,miniDDS
 3702 1362 8823      		tst r24
 3703 1364 01F4      		brne .L332
 3704               	.LM486:
 3705 1366 0E94 0000 		call ShowFocus
 3706               	.L332:
 3707               	.LM487:
 3708 136a 8091 0000 		lds r24,Flags
 3709 136e 8068      		ori r24,lo8(-128)
 3710 1370 8093 0000 		sts Flags,r24
 3711               	.LM488:
 3712 1374 6091 0000 		lds r22,miniDDS+7
 3713 1378 7091 0000 		lds r23,(miniDDS+7)+1
 3714 137c 8091 0000 		lds r24,(miniDDS+7)+2
 3715 1380 9091 0000 		lds r25,(miniDDS+7)+3
 3716 1384 24E6      		ldi r18,lo8(100)
 3717 1386 30E0      		ldi r19,hi8(100)
 3718 1388 40E0      		ldi r20,hlo8(100)
 3719 138a 50E0      		ldi r21,hhi8(100)
 3720 138c 0E94 0000 		call __mulsi3
 3721 1390 20E1      		ldi r18,lo8(10000)
 3722 1392 37E2      		ldi r19,hi8(10000)
 3723 1394 40E0      		ldi r20,hlo8(10000)
 3724 1396 50E0      		ldi r21,hhi8(10000)
 3725 1398 0E94 0000 		call __udivmodsi4
 3726 139c 822F      		mov r24,r18
 3727 139e 0E94 0000 		call SetDigitalPot
 3728               	/* epilogue start */
 3729               	.LM489:
 3730 13a2 1F91      		pop r17
 3731               	.LVL230:
 3732 13a4 0895      		ret
 3733               	.LFE55:
 3735               	.global	AmpInputHandle
 3737               	AmpInputHandle:
 3738               	.LFB45:
 3739               	.LM490:
 3740               	/* prologue: function */
 3741               	/* frame size = 0 */
 3742               	.LM491:
 3743 13a6 8091 0000 		lds r24,NumInput+11
 3744 13aa 8F30      		cpi r24,lo8(15)
 3745 13ac 01F0      		breq .L336
 3746 13ae 8031      		cpi r24,lo8(16)
 3747 13b0 01F4      		brne .L335
 3748 13b2 00C0      		rjmp .L344
 3749               	.L336:
 3750               	.LM492:
 3751 13b4 0E94 0000 		call CalValue
 3752 13b8 00C0      		rjmp .L343
 3753               	.L344:
 3754               	.LM493:
 3755 13ba 0E94 0000 		call CalWholePart
 3756               	.L343:
 3757 13be 8823      		tst r24
 3758 13c0 01F0      		breq .L335
 3759               	.LM494:
 3760 13c2 8091 0000 		lds r24,NumInput+7
 3761 13c6 9091 0000 		lds r25,(NumInput+7)+1
 3762 13ca A091 0000 		lds r26,(NumInput+7)+2
 3763 13ce B091 0000 		lds r27,(NumInput+7)+3
 3764 13d2 8093 0000 		sts miniDDS+7,r24
 3765 13d6 9093 0000 		sts (miniDDS+7)+1,r25
 3766 13da A093 0000 		sts (miniDDS+7)+2,r26
 3767 13de B093 0000 		sts (miniDDS+7)+3,r27
 3768               	.L335:
 3769               	.LM495:
 3770 13e2 0E94 0000 		call SaveSetting
 3771               	.LM496:
 3772 13e6 8091 0000 		lds r24,miniDDS
 3773 13ea 8823      		tst r24
 3774 13ec 01F4      		brne .L338
 3775               	.LM497:
 3776 13ee 81E1      		ldi r24,lo8(17)
 3777 13f0 0E94 0000 		call ShowAmp
 3778               	.L338:
 3779               	.LM498:
 3780 13f4 8091 0000 		lds r24,miniDDS
 3781 13f8 8130      		cpi r24,lo8(1)
 3782 13fa 01F4      		brne .L340
 3783               	.LM499:
 3784 13fc 85E1      		ldi r24,lo8(21)
 3785 13fe 0E94 0000 		call ShowAmp
 3786               	.L340:
 3787 1402 0895      		ret
 3788               	.LFE45:
 3790               	.global	AppInit
 3792               	AppInit:
 3793               	.LFB4:
 3794               	.LM500:
 3795 1404 0F93      		push r16
 3796 1406 1F93      		push r17
 3797 1408 CF93      		push r28
 3798 140a DF93      		push r29
 3799               	/* prologue: function */
 3800               	/* frame size = 0 */
 3801               	.LM501:
 3802 140c 1092 0000 		sts KeyCode,__zero_reg__
 3803               	.LM502:
 3804 1410 1092 0000 		sts KFlags,__zero_reg__
 3805               	.LM503:
 3806 1414 1092 0000 		sts Flags,__zero_reg__
 3807               	.LM504:
 3808 1418 80E0      		ldi r24,lo8(0)
 3809 141a 0E94 0000 		call SetDigitalPot
 3810               	.LM505:
 3811 141e 1092 0000 		sts PrevWiperPos,__zero_reg__
 3812               	.LM506:
 3813 1422 80E0      		ldi r24,lo8(Signature_EE1)
 3814 1424 90E0      		ldi r25,hi8(Signature_EE1)
 3815 1426 0E94 0000 		call EE_Read
 3816 142a 182F      		mov r17,r24
 3817               	.LVL231:
 3818               	.LM507:
 3819 142c 80E0      		ldi r24,lo8(Signature_EE2)
 3820 142e 90E0      		ldi r25,hi8(Signature_EE2)
 3821 1430 0E94 0000 		call EE_Read
 3822 1434 082F      		mov r16,r24
 3823               	.LVL232:
 3824               	.LM508:
 3825 1436 80E0      		ldi r24,lo8(EEversion)
 3826 1438 90E0      		ldi r25,hi8(EEversion)
 3827 143a 0E94 0000 		call EE_Read
 3828               	.LM509:
 3829 143e 1A3F      		cpi r17,lo8(-6)
 3830 1440 01F4      		brne .L346
 3831 1442 0F35      		cpi r16,lo8(95)
 3832 1444 01F4      		brne .L346
 3833 1446 8430      		cpi r24,lo8(4)
 3834               	.LVL233:
 3835 1448 01F4      		brne .L346
 3836 144a C0E0      		ldi r28,lo8(0)
 3837 144c D0E0      		ldi r29,hi8(0)
 3838               	.L347:
 3839               	.LM510:
 3840 144e CE01      		movw r24,r28
 3841               	.LVL234:
 3842 1450 8050      		subi r24,lo8(-(miniDDS_EE))
 3843 1452 9040      		sbci r25,hi8(-(miniDDS_EE))
 3844 1454 0E94 0000 		call EE_Read
 3845 1458 FE01      		movw r30,r28
 3846 145a E050      		subi r30,lo8(-(miniDDS))
 3847 145c F040      		sbci r31,hi8(-(miniDDS))
 3848 145e 8083      		st Z,r24
 3849 1460 2196      		adiw r28,1
 3850               	.LM511:
 3851 1462 CE33      		cpi r28,62
 3852 1464 D105      		cpc r29,__zero_reg__
 3853 1466 01F4      		brne .L347
 3854 1468 00C0      		rjmp .L348
 3855               	.LVL235:
 3856               	.L346:
 3857 146a 80E0      		ldi r24,lo8(0)
 3858 146c 90E0      		ldi r25,hi8(0)
 3859               	.LVL236:
 3860               	.L349:
 3861               	.LBB236:
 3862               	.LM512:
 3863 146e FC01      		movw r30,r24
 3864 1470 E050      		subi r30,lo8(-(miniDDS_ROM))
 3865 1472 F040      		sbci r31,hi8(-(miniDDS_ROM))
 3866               	/* #APP */
 3867               	 ;  475 "FuncGen.c" 1
 3868 1474 E491      		lpm r30, Z
 3869               		
 3870               	 ;  0 "" 2
 3871               	.LVL237:
 3872               	/* #NOAPP */
 3873               	.LBE236:
 3874               	.LM513:
 3875 1476 DC01      		movw r26,r24
 3876 1478 A050      		subi r26,lo8(-(miniDDS))
 3877 147a B040      		sbci r27,hi8(-(miniDDS))
 3878 147c EC93      		st X,r30
 3879 147e 0196      		adiw r24,1
 3880               	.LM514:
 3881 1480 8E33      		cpi r24,62
 3882 1482 9105      		cpc r25,__zero_reg__
 3883 1484 01F4      		brne .L349
 3884               	.LM515:
 3885 1486 0E94 0000 		call SaveSetting
 3886               	.LVL238:
 3887               	.LM516:
 3888 148a 80E0      		ldi r24,lo8(Signature_EE1)
 3889 148c 90E0      		ldi r25,hi8(Signature_EE1)
 3890 148e 6AEF      		ldi r22,lo8(-6)
 3891 1490 0E94 0000 		call EE_Write
 3892               	.LM517:
 3893 1494 80E0      		ldi r24,lo8(Signature_EE2)
 3894 1496 90E0      		ldi r25,hi8(Signature_EE2)
 3895 1498 6FE5      		ldi r22,lo8(95)
 3896 149a 0E94 0000 		call EE_Write
 3897               	.LM518:
 3898 149e 80E0      		ldi r24,lo8(EEversion)
 3899 14a0 90E0      		ldi r25,hi8(EEversion)
 3900 14a2 64E0      		ldi r22,lo8(4)
 3901 14a4 0E94 0000 		call EE_Write
 3902               	.L348:
 3903               	.LM519:
 3904 14a8 80E1      		ldi r24,lo8(10000)
 3905 14aa 97E2      		ldi r25,hi8(10000)
 3906 14ac 0E94 0000 		call Delay
 3907               	.LM520:
 3908 14b0 8091 0000 		lds r24,miniDDS
 3909 14b4 8430      		cpi r24,lo8(4)
 3910 14b6 00F0      		brlo .L350
 3911               	.LM521:
 3912 14b8 1092 0000 		sts miniDDS,__zero_reg__
 3913               	.L350:
 3914               	.LBB237:
 3915               	.LM522:
 3916 14bc 8091 0000 		lds r24,miniDDS
 3917 14c0 90E0      		ldi r25,lo8(0)
 3918               	.LVL239:
 3919 14c2 880F      		lsl r24
 3920 14c4 991F      		rol r25
 3921               	.LVL240:
 3922 14c6 8050      		subi r24,lo8(-(InitFuncTab))
 3923 14c8 9040      		sbci r25,hi8(-(InitFuncTab))
 3924 14ca FC01      		movw r30,r24
 3925               	/* #APP */
 3926               	 ;  499 "FuncGen.c" 1
 3927 14cc 2591      		lpm r18, Z+
 3928 14ce 3491      		lpm r19, Z
 3929               		
 3930               	 ;  0 "" 2
 3931               	.LVL241:
 3932               	/* #NOAPP */
 3933               	.LBE237:
 3934 14d0 F901      		movw r30,r18
 3935 14d2 0995      		icall
 3936               	.LVL242:
 3937               	/* epilogue start */
 3938               	.LM523:
 3939 14d4 DF91      		pop r29
 3940 14d6 CF91      		pop r28
 3941 14d8 1F91      		pop r17
 3942               	.LVL243:
 3943 14da 0F91      		pop r16
 3944               	.LVL244:
 3945 14dc 0895      		ret
 3946               	.LFE4:
 3948               	.global	ShowServoAmp
 3950               	ShowServoAmp:
 3951               	.LFB61:
 3952               	.LM524:
 3953               	/* prologue: function */
 3954               	/* frame size = 0 */
 3955               	.LM525:
 3956 14de 2091 0000 		lds r18,miniDDS+42
 3957 14e2 3091 0000 		lds r19,(miniDDS+42)+1
 3958 14e6 8091 0000 		lds r24,miniDDS+26
 3959 14ea 9091 0000 		lds r25,(miniDDS+26)+1
 3960 14ee 2817      		cp r18,r24
 3961 14f0 3907      		cpc r19,r25
 3962 14f2 00F4      		brsh .L355
 3963               	.LM526:
 3964 14f4 3093 0000 		sts (miniDDS+26)+1,r19
 3965 14f8 2093 0000 		sts miniDDS+26,r18
 3966               	.L355:
 3967               	.LM527:
 3968 14fc 8091 0000 		lds r24,miniDDS+26
 3969 1500 9091 0000 		lds r25,(miniDDS+26)+1
 3970 1504 A0E0      		ldi r26,lo8(0)
 3971 1506 B0E0      		ldi r27,hi8(0)
 3972 1508 8093 0000 		sts NumString,r24
 3973 150c 9093 0000 		sts (NumString)+1,r25
 3974 1510 A093 0000 		sts (NumString)+2,r26
 3975 1514 B093 0000 		sts (NumString)+3,r27
 3976               	.LM528:
 3977 1518 83E0      		ldi r24,lo8(3)
 3978 151a 8093 0000 		sts NumString+4,r24
 3979               	.LM529:
 3980 151e 80E0      		ldi r24,lo8(Strbuf)
 3981 1520 90E0      		ldi r25,hi8(Strbuf)
 3982 1522 9093 0000 		sts (NumString+6)+1,r25
 3983 1526 8093 0000 		sts NumString+6,r24
 3984               	.LM530:
 3985 152a 80E0      		ldi r24,lo8(NumString)
 3986 152c 90E0      		ldi r25,hi8(NumString)
 3987 152e 0E94 0000 		call BinToStr
 3988 1532 80E0      		ldi r24,lo8(0)
 3989 1534 90E0      		ldi r25,hi8(0)
 3990               	.LBB238:
 3991               	.LBB239:
 3992               	.LBB240:
 3993               	.LBB241:
 3994               	.LM531:
 3995 1536 20E2      		ldi r18,lo8(32)
 3996               	.L356:
 3997 1538 FC01      		movw r30,r24
 3998 153a E050      		subi r30,lo8(-(DispBuf))
 3999 153c F040      		sbci r31,hi8(-(DispBuf))
 4000 153e 2083      		st Z,r18
 4001 1540 0196      		adiw r24,1
 4002               	.LM532:
 4003 1542 8032      		cpi r24,32
 4004 1544 9105      		cpc r25,__zero_reg__
 4005 1546 01F4      		brne .L356
 4006 1548 80E0      		ldi r24,lo8(0)
 4007 154a 90E0      		ldi r25,hi8(0)
 4008 154c 00C0      		rjmp .L357
 4009               	.LVL245:
 4010               	.L358:
 4011               	.LBE241:
 4012               	.LBE240:
 4013               	.LBE239:
 4014               	.LBE238:
 4015               	.LBB242:
 4016               	.LBB243:
 4017               	.LM533:
 4018 154e E32F      		mov r30,r19
 4019 1550 F0E0      		ldi r31,lo8(0)
 4020 1552 E050      		subi r30,lo8(-(DispBuf))
 4021 1554 F040      		sbci r31,hi8(-(DispBuf))
 4022 1556 2083      		st Z,r18
 4023               	.L357:
 4024 1558 382F      		mov r19,r24
 4025               	.LBB244:
 4026               	.LM534:
 4027 155a FC01      		movw r30,r24
 4028 155c E050      		subi r30,lo8(-(ServoPos))
 4029 155e F040      		sbci r31,hi8(-(ServoPos))
 4030               	/* #APP */
 4031               	 ;  2641 "FuncGen.c" 1
 4032 1560 2491      		lpm r18, Z
 4033               		
 4034               	 ;  0 "" 2
 4035               	/* #NOAPP */
 4036 1562 0196      		adiw r24,1
 4037               	.LBE244:
 4038 1564 2223      		tst r18
 4039 1566 01F4      		brne .L358
 4040               	.LBE243:
 4041               	.LBE242:
 4042               	.LM535:
 4043 1568 8091 0000 		lds r24,Strbuf+4
 4044 156c 8093 0000 		sts DispBuf+21,r24
 4045 1570 8091 0000 		lds r24,Strbuf+5
 4046 1574 8093 0000 		sts DispBuf+22,r24
 4047 1578 8091 0000 		lds r24,Strbuf+6
 4048 157c 8093 0000 		sts DispBuf+23,r24
 4049 1580 8091 0000 		lds r24,Strbuf+7
 4050 1584 8093 0000 		sts DispBuf+24,r24
 4051               	.LM536:
 4052 1588 80E2      		ldi r24,lo8(32)
 4053 158a 8093 0000 		sts DispBuf+20,r24
 4054 158e 80E0      		ldi r24,lo8(0)
 4055 1590 90E0      		ldi r25,hi8(0)
 4056 1592 00C0      		rjmp .L359
 4057               	.LVL246:
 4058               	.L360:
 4059               	.LBB245:
 4060               	.LBB246:
 4061               	.LM537:
 4062 1594 E32F      		mov r30,r19
 4063 1596 F0E0      		ldi r31,lo8(0)
 4064 1598 E050      		subi r30,lo8(-(DispBuf))
 4065 159a F040      		sbci r31,hi8(-(DispBuf))
 4066 159c 2083      		st Z,r18
 4067               	.LVL247:
 4068               	.L359:
 4069 159e 382F      		mov r19,r24
 4070               	.LVL248:
 4071 15a0 305F      		subi r19,lo8(-(16))
 4072               	.LBB247:
 4073               	.LM538:
 4074 15a2 FC01      		movw r30,r24
 4075 15a4 E050      		subi r30,lo8(-(ServoAmp))
 4076 15a6 F040      		sbci r31,hi8(-(ServoAmp))
 4077               	/* #APP */
 4078               	 ;  2641 "FuncGen.c" 1
 4079 15a8 2491      		lpm r18, Z
 4080               		
 4081               	 ;  0 "" 2
 4082               	.LVL249:
 4083               	/* #NOAPP */
 4084 15aa 0196      		adiw r24,1
 4085               	.LBE247:
 4086 15ac 2223      		tst r18
 4087 15ae 01F4      		brne .L360
 4088 15b0 80E0      		ldi r24,lo8(0)
 4089 15b2 90E0      		ldi r25,hi8(0)
 4090 15b4 00C0      		rjmp .L361
 4091               	.LVL250:
 4092               	.L362:
 4093               	.LBE246:
 4094               	.LBE245:
 4095               	.LBB248:
 4096               	.LBB249:
 4097               	.LM539:
 4098 15b6 E32F      		mov r30,r19
 4099 15b8 F0E0      		ldi r31,lo8(0)
 4100 15ba E050      		subi r30,lo8(-(DispBuf))
 4101 15bc F040      		sbci r31,hi8(-(DispBuf))
 4102 15be 2083      		st Z,r18
 4103               	.LVL251:
 4104               	.L361:
 4105 15c0 382F      		mov r19,r24
 4106               	.LVL252:
 4107 15c2 375E      		subi r19,lo8(-(25))
 4108               	.LBB250:
 4109               	.LM540:
 4110 15c4 FC01      		movw r30,r24
 4111 15c6 E050      		subi r30,lo8(-(Unit_Symbols+20))
 4112 15c8 F040      		sbci r31,hi8(-(Unit_Symbols+20))
 4113               	/* #APP */
 4114               	 ;  2641 "FuncGen.c" 1
 4115 15ca 2491      		lpm r18, Z
 4116               		
 4117               	 ;  0 "" 2
 4118               	.LVL253:
 4119               	/* #NOAPP */
 4120 15cc 0196      		adiw r24,1
 4121               	.LBE250:
 4122 15ce 2223      		tst r18
 4123 15d0 01F4      		brne .L362
 4124               	.LBE249:
 4125               	.LBE248:
 4126               	.LM541:
 4127 15d2 8091 0000 		lds r24,Flags
 4128 15d6 8068      		ori r24,lo8(-128)
 4129 15d8 8093 0000 		sts Flags,r24
 4130               	.LM542:
 4131 15dc 6091 0000 		lds r22,miniDDS+26
 4132 15e0 7091 0000 		lds r23,(miniDDS+26)+1
 4133 15e4 80E0      		ldi r24,lo8(0)
 4134 15e6 90E0      		ldi r25,hi8(0)
 4135 15e8 24E6      		ldi r18,lo8(100)
 4136 15ea 30E0      		ldi r19,hi8(100)
 4137 15ec 40E0      		ldi r20,hlo8(100)
 4138 15ee 50E0      		ldi r21,hhi8(100)
 4139               	.LVL254:
 4140 15f0 0E94 0000 		call __mulsi3
 4141 15f4 20E1      		ldi r18,lo8(10000)
 4142 15f6 37E2      		ldi r19,hi8(10000)
 4143 15f8 40E0      		ldi r20,hlo8(10000)
 4144 15fa 50E0      		ldi r21,hhi8(10000)
 4145 15fc 0E94 0000 		call __udivmodsi4
 4146 1600 822F      		mov r24,r18
 4147 1602 0E94 0000 		call SetDigitalPot
 4148               	.LVL255:
 4149               	.LM543:
 4150 1606 6091 0000 		lds r22,miniDDS+26
 4151 160a 7091 0000 		lds r23,(miniDDS+26)+1
 4152 160e 7695      		lsr r23
 4153 1610 6795      		ror r22
 4154 1612 80E0      		ldi r24,lo8(0)
 4155 1614 90E0      		ldi r25,hi8(0)
 4156 1616 6857      		subi r22,lo8(-(5000))
 4157 1618 7C4E      		sbci r23,hi8(-(5000))
 4158 161a 8F4F      		sbci r24,hlo8(-(5000))
 4159 161c 9F4F      		sbci r25,hhi8(-(5000))
 4160 161e 0E94 0000 		call UpdateOfs
 4161               	/* epilogue start */
 4162               	.LM544:
 4163 1622 0895      		ret
 4164               	.LFE61:
 4166               	.global	ServoAmpInputHandle
 4168               	ServoAmpInputHandle:
 4169               	.LFB48:
 4170               	.LM545:
 4171               	/* prologue: function */
 4172               	/* frame size = 0 */
 4173               	.LM546:
 4174 1624 8091 0000 		lds r24,NumInput+11
 4175 1628 8F30      		cpi r24,lo8(15)
 4176 162a 01F0      		breq .L367
 4177 162c 8031      		cpi r24,lo8(16)
 4178 162e 01F4      		brne .L366
 4179               	.LM547:
 4180 1630 0E94 0000 		call CalWholePart
 4181 1634 00C0      		rjmp .L372
 4182               	.L367:
 4183               	.LM548:
 4184 1636 0E94 0000 		call CalValue
 4185               	.L372:
 4186 163a 8823      		tst r24
 4187 163c 01F0      		breq .L366
 4188               	.LM549:
 4189 163e 8091 0000 		lds r24,NumInput+7
 4190 1642 9091 0000 		lds r25,(NumInput+7)+1
 4191 1646 9093 0000 		sts (miniDDS+26)+1,r25
 4192 164a 8093 0000 		sts miniDDS+26,r24
 4193               	.L366:
 4194               	.LM550:
 4195 164e 0E94 0000 		call ShowServoAmp
 4196               	.LM551:
 4197 1652 0E94 0000 		call SaveSetting
 4198               	/* epilogue start */
 4199               	.LM552:
 4200 1656 0895      		ret
 4201               	.LFE48:
 4203               	.global	ShowOfs
 4205               	ShowOfs:
 4206               	.LFB56:
 4207               	.LM553:
 4208               	.LVL256:
 4209 1658 0F93      		push r16
 4210 165a 1F93      		push r17
 4211               	/* prologue: function */
 4212               	/* frame size = 0 */
 4213 165c 082F      		mov r16,r24
 4214               	.LM554:
 4215 165e 2091 0000 		lds r18,miniDDS+11
 4216 1662 3091 0000 		lds r19,(miniDDS+11)+1
 4217 1666 4091 0000 		lds r20,(miniDDS+11)+2
 4218 166a 5091 0000 		lds r21,(miniDDS+11)+3
 4219 166e 2838      		cpi r18,lo8(5000)
 4220 1670 83E1      		ldi r24,hi8(5000)
 4221 1672 3807      		cpc r19,r24
 4222 1674 80E0      		ldi r24,hlo8(5000)
 4223 1676 4807      		cpc r20,r24
 4224 1678 80E0      		ldi r24,hhi8(5000)
 4225 167a 5807      		cpc r21,r24
 4226               	.LVL257:
 4227 167c 00F0      		brlo .L374
 4228               	.LM555:
 4229 167e CA01      		movw r24,r20
 4230 1680 B901      		movw r22,r18
 4231               	.LVL258:
 4232 1682 6858      		subi r22,lo8(-(-5000))
 4233 1684 7341      		sbci r23,hi8(-(-5000))
 4234 1686 8040      		sbci r24,hlo8(-(-5000))
 4235 1688 9040      		sbci r25,hhi8(-(-5000))
 4236 168a 10E0      		ldi r17,lo8(0)
 4237               	.LVL259:
 4238 168c 00C0      		rjmp .L375
 4239               	.LVL260:
 4240               	.L374:
 4241               	.LM556:
 4242 168e 68E8      		ldi r22,lo8(5000)
 4243 1690 73E1      		ldi r23,hi8(5000)
 4244 1692 80E0      		ldi r24,hlo8(5000)
 4245 1694 90E0      		ldi r25,hhi8(5000)
 4246               	.LVL261:
 4247 1696 621B      		sub r22,r18
 4248 1698 730B      		sbc r23,r19
 4249 169a 840B      		sbc r24,r20
 4250 169c 950B      		sbc r25,r21
 4251 169e 11E0      		ldi r17,lo8(1)
 4252               	.LVL262:
 4253               	.L375:
 4254               	.LM557:
 4255 16a0 40E0      		ldi r20,lo8(Strbuf)
 4256 16a2 50E0      		ldi r21,hi8(Strbuf)
 4257 16a4 0E94 0000 		call BinToDec32
 4258               	.LVL263:
 4259               	.LM558:
 4260 16a8 A02F      		mov r26,r16
 4261 16aa B0E0      		ldi r27,lo8(0)
 4262 16ac FD01      		movw r30,r26
 4263 16ae E050      		subi r30,lo8(-(DispBuf))
 4264 16b0 F040      		sbci r31,hi8(-(DispBuf))
 4265 16b2 80E2      		ldi r24,lo8(32)
 4266 16b4 8083      		st Z,r24
 4267               	.LM559:
 4268 16b6 FD01      		movw r30,r26
 4269 16b8 E050      		subi r30,lo8(-(DispBuf+1))
 4270 16ba F040      		sbci r31,hi8(-(DispBuf+1))
 4271 16bc 8083      		st Z,r24
 4272               	.LM560:
 4273 16be 1130      		cpi r17,lo8(1)
 4274 16c0 01F0      		breq .L376
 4275 16c2 8BE2      		ldi r24,lo8(43)
 4276 16c4 00C0      		rjmp .L377
 4277               	.L376:
 4278 16c6 8DE2      		ldi r24,lo8(45)
 4279               	.L377:
 4280 16c8 FD01      		movw r30,r26
 4281 16ca E050      		subi r30,lo8(-(DispBuf+2))
 4282 16cc F040      		sbci r31,hi8(-(DispBuf+2))
 4283 16ce 8083      		st Z,r24
 4284               	.LM561:
 4285 16d0 8091 0000 		lds r24,Strbuf+6
 4286 16d4 FD01      		movw r30,r26
 4287 16d6 E050      		subi r30,lo8(-(DispBuf+3))
 4288 16d8 F040      		sbci r31,hi8(-(DispBuf+3))
 4289 16da 8083      		st Z,r24
 4290               	.LM562:
 4291 16dc FD01      		movw r30,r26
 4292 16de E050      		subi r30,lo8(-(DispBuf+4))
 4293 16e0 F040      		sbci r31,hi8(-(DispBuf+4))
 4294 16e2 8EE2      		ldi r24,lo8(46)
 4295 16e4 8083      		st Z,r24
 4296               	.LM563:
 4297 16e6 8091 0000 		lds r24,Strbuf+7
 4298 16ea FD01      		movw r30,r26
 4299 16ec E050      		subi r30,lo8(-(DispBuf+5))
 4300 16ee F040      		sbci r31,hi8(-(DispBuf+5))
 4301 16f0 8083      		st Z,r24
 4302               	.LM564:
 4303 16f2 FD01      		movw r30,r26
 4304 16f4 E050      		subi r30,lo8(-(DispBuf+6))
 4305 16f6 F040      		sbci r31,hi8(-(DispBuf+6))
 4306 16f8 80E2      		ldi r24,lo8(32)
 4307 16fa 8083      		st Z,r24
 4308               	.LM565:
 4309 16fc A050      		subi r26,lo8(-(DispBuf+7))
 4310 16fe B040      		sbci r27,hi8(-(DispBuf+7))
 4311 1700 86E5      		ldi r24,lo8(86)
 4312 1702 8C93      		st X,r24
 4313               	.LM566:
 4314 1704 8091 0000 		lds r24,miniDDS
 4315 1708 8823      		tst r24
 4316 170a 01F4      		brne .L378
 4317               	.LM567:
 4318 170c 0E94 0000 		call ShowFocus
 4319               	.L378:
 4320               	.LM568:
 4321 1710 8091 0000 		lds r24,Flags
 4322 1714 8068      		ori r24,lo8(-128)
 4323 1716 8093 0000 		sts Flags,r24
 4324               	.LM569:
 4325 171a 6091 0000 		lds r22,miniDDS+11
 4326 171e 7091 0000 		lds r23,(miniDDS+11)+1
 4327 1722 8091 0000 		lds r24,(miniDDS+11)+2
 4328 1726 9091 0000 		lds r25,(miniDDS+11)+3
 4329 172a 0E94 0000 		call UpdateOfs
 4330               	/* epilogue start */
 4331               	.LM570:
 4332 172e 1F91      		pop r17
 4333               	.LVL264:
 4334 1730 0F91      		pop r16
 4335               	.LVL265:
 4336 1732 0895      		ret
 4337               	.LFE56:
 4339               	.global	IncInputHandle
 4341               	IncInputHandle:
 4342               	.LFB50:
 4343               	.LM571:
 4344               	/* prologue: function */
 4345               	/* frame size = 0 */
 4346               	.LM572:
 4347 1734 8091 0000 		lds r24,NumInput+11
 4348 1738 8F50      		subi r24,lo8(-(-15))
 4349 173a 8230      		cpi r24,lo8(2)
 4350 173c 00F4      		brsh .L381
 4351               	.LM573:
 4352 173e 0E94 0000 		call CalWholePart
 4353 1742 8823      		tst r24
 4354 1744 01F0      		breq .L381
 4355               	.LM574:
 4356 1746 8091 0000 		lds r24,NumInput+7
 4357 174a 9091 0000 		lds r25,(NumInput+7)+1
 4358 174e A091 0000 		lds r26,(NumInput+7)+2
 4359 1752 B091 0000 		lds r27,(NumInput+7)+3
 4360 1756 0097      		sbiw r24,0
 4361 1758 A105      		cpc r26,__zero_reg__
 4362 175a B105      		cpc r27,__zero_reg__
 4363 175c 01F0      		breq .L381
 4364               	.LM575:
 4365 175e 2091 0000 		lds r18,NumInput+11
 4366 1762 2F30      		cpi r18,lo8(15)
 4367 1764 01F0      		breq .L383
 4368 1766 2031      		cpi r18,lo8(16)
 4369 1768 01F4      		brne .L381
 4370 176a 00C0      		rjmp .L388
 4371               	.L383:
 4372               	.LM576:
 4373 176c 8093 0000 		sts miniDDS+16,r24
 4374 1770 9093 0000 		sts (miniDDS+16)+1,r25
 4375 1774 A093 0000 		sts (miniDDS+16)+2,r26
 4376 1778 B093 0000 		sts (miniDDS+16)+3,r27
 4377 177c 00C0      		rjmp .L381
 4378               	.L388:
 4379               	.LM577:
 4380 177e 8093 0000 		sts miniDDS+20,r24
 4381 1782 9093 0000 		sts (miniDDS+20)+1,r25
 4382 1786 A093 0000 		sts (miniDDS+20)+2,r26
 4383 178a B093 0000 		sts (miniDDS+20)+3,r27
 4384               	.L381:
 4385               	.LM578:
 4386 178e 0E94 0000 		call SaveSetting
 4387 1792 80E0      		ldi r24,lo8(0)
 4388 1794 90E0      		ldi r25,hi8(0)
 4389               	.LBB251:
 4390               	.LBB252:
 4391               	.LBB253:
 4392               	.LBB254:
 4393               	.LM579:
 4394 1796 20E2      		ldi r18,lo8(32)
 4395               	.L385:
 4396 1798 FC01      		movw r30,r24
 4397 179a E050      		subi r30,lo8(-(DispBuf))
 4398 179c F040      		sbci r31,hi8(-(DispBuf))
 4399 179e 2083      		st Z,r18
 4400 17a0 0196      		adiw r24,1
 4401               	.LM580:
 4402 17a2 8032      		cpi r24,32
 4403 17a4 9105      		cpc r25,__zero_reg__
 4404 17a6 01F4      		brne .L385
 4405               	.LBE254:
 4406               	.LBE253:
 4407               	.LBE252:
 4408               	.LBE251:
 4409               	.LM581:
 4410 17a8 0E94 0000 		call ShowType
 4411               	.LM582:
 4412 17ac 0E94 0000 		call ShowFreqPeroid
 4413               	.LM583:
 4414 17b0 81E1      		ldi r24,lo8(17)
 4415 17b2 0E94 0000 		call ShowAmp
 4416               	.LM584:
 4417 17b6 88E1      		ldi r24,lo8(24)
 4418 17b8 0E94 0000 		call ShowOfs
 4419               	.LM585:
 4420 17bc 0E94 0000 		call ShowFocus
 4421               	/* epilogue start */
 4422               	.LM586:
 4423 17c0 0895      		ret
 4424               	.LFE50:
 4426               	.global	OfsInputHandle
 4428               	OfsInputHandle:
 4429               	.LFB46:
 4430               	.LM587:
 4431               	/* prologue: function */
 4432               	/* frame size = 0 */
 4433               	.LM588:
 4434 17c2 8091 0000 		lds r24,NumInput+11
 4435 17c6 8F30      		cpi r24,lo8(15)
 4436 17c8 01F0      		breq .L391
 4437 17ca 8031      		cpi r24,lo8(16)
 4438 17cc 01F0      		breq .+2
 4439 17ce 00C0      		rjmp .L390
 4440 17d0 00C0      		rjmp .L402
 4441               	.L391:
 4442               	.LM589:
 4443 17d2 0E94 0000 		call CalValue
 4444 17d6 00C0      		rjmp .L401
 4445               	.L402:
 4446               	.LM590:
 4447 17d8 0E94 0000 		call CalWholePart
 4448               	.L401:
 4449 17dc 8823      		tst r24
 4450 17de 01F0      		breq .L393
 4451               	.LM591:
 4452 17e0 7091 0000 		lds r23,NumInput+7
 4453               	.LVL266:
 4454 17e4 6091 0000 		lds r22,NumInput+8
 4455               	.LVL267:
 4456 17e8 9091 0000 		lds r25,NumInput+9
 4457               	.LVL268:
 4458 17ec 8091 0000 		lds r24,NumInput+10
 4459               	.LVL269:
 4460               	.L393:
 4461 17f0 272F      		mov r18,r23
 4462 17f2 362F      		mov r19,r22
 4463 17f4 492F      		mov r20,r25
 4464 17f6 582F      		mov r21,r24
 4465 17f8 C901      		movw r24,r18
 4466               	.LVL270:
 4467 17fa DA01      		movw r26,r20
 4468 17fc 9C01      		movw r18,r24
 4469 17fe AD01      		movw r20,r26
 4470 1800 2938      		cpi r18,lo8(5001)
 4471 1802 83E1      		ldi r24,hi8(5001)
 4472 1804 3807      		cpc r19,r24
 4473 1806 80E0      		ldi r24,hlo8(5001)
 4474 1808 4807      		cpc r20,r24
 4475 180a 80E0      		ldi r24,hhi8(5001)
 4476 180c 5807      		cpc r21,r24
 4477 180e 00F0      		brlo .L394
 4478               	.LVL271:
 4479 1810 28E8      		ldi r18,lo8(5000)
 4480 1812 33E1      		ldi r19,hi8(5000)
 4481 1814 40E0      		ldi r20,hlo8(5000)
 4482 1816 50E0      		ldi r21,hhi8(5000)
 4483               	.LVL272:
 4484               	.L394:
 4485               	.LM592:
 4486 1818 8091 0000 		lds r24,NumInput+5
 4487 181c 8130      		cpi r24,lo8(1)
 4488 181e 01F4      		brne .L395
 4489               	.LM593:
 4490 1820 88E8      		ldi r24,lo8(5000)
 4491 1822 93E1      		ldi r25,hi8(5000)
 4492 1824 A0E0      		ldi r26,hlo8(5000)
 4493 1826 B0E0      		ldi r27,hhi8(5000)
 4494 1828 821B      		sub r24,r18
 4495 182a 930B      		sbc r25,r19
 4496 182c A40B      		sbc r26,r20
 4497 182e B50B      		sbc r27,r21
 4498 1830 8093 0000 		sts miniDDS+11,r24
 4499 1834 9093 0000 		sts (miniDDS+11)+1,r25
 4500 1838 A093 0000 		sts (miniDDS+11)+2,r26
 4501 183c B093 0000 		sts (miniDDS+11)+3,r27
 4502 1840 00C0      		rjmp .L390
 4503               	.L395:
 4504               	.LM594:
 4505 1842 2857      		subi r18,lo8(-(5000))
 4506 1844 3C4E      		sbci r19,hi8(-(5000))
 4507 1846 4F4F      		sbci r20,hlo8(-(5000))
 4508 1848 5F4F      		sbci r21,hhi8(-(5000))
 4509 184a 2093 0000 		sts miniDDS+11,r18
 4510 184e 3093 0000 		sts (miniDDS+11)+1,r19
 4511 1852 4093 0000 		sts (miniDDS+11)+2,r20
 4512 1856 5093 0000 		sts (miniDDS+11)+3,r21
 4513               	.LVL273:
 4514               	.L390:
 4515               	.LM595:
 4516 185a 8091 0000 		lds r24,miniDDS
 4517 185e 8823      		tst r24
 4518 1860 01F4      		brne .L396
 4519               	.LM596:
 4520 1862 88E1      		ldi r24,lo8(24)
 4521 1864 0E94 0000 		call ShowOfs
 4522               	.LVL274:
 4523               	.L396:
 4524               	.LM597:
 4525 1868 8091 0000 		lds r24,miniDDS
 4526 186c 8130      		cpi r24,lo8(1)
 4527 186e 01F4      		brne .L397
 4528               	.LM598:
 4529 1870 84E1      		ldi r24,lo8(20)
 4530 1872 0E94 0000 		call ShowOfs
 4531               	.LVL275:
 4532               	.L397:
 4533               	.LM599:
 4534 1876 0E94 0000 		call SaveSetting
 4535               	.LVL276:
 4536               	/* epilogue start */
 4537               	.LM600:
 4538 187a 0895      		ret
 4539               	.LFE46:
 4541               	.global	CW_Init
 4543               	CW_Init:
 4544               	.LFB5:
 4545               	.LM601:
 4546               	/* prologue: function */
 4547               	/* frame size = 0 */
 4548               	.LM602:
 4549 187c 1092 0000 		sts SysState,__zero_reg__
 4550               	.LM603:
 4551 1880 1092 0000 		sts CurrMode,__zero_reg__
 4552               	.LM604:
 4553 1884 1092 0000 		sts CurrFocus,__zero_reg__
 4554               	.LM605:
 4555 1888 8EE3      		ldi r24,lo8(62)
 4556 188a 8093 0000 		sts TrigCtrl,r24
 4557 188e 80E0      		ldi r24,lo8(0)
 4558 1890 90E0      		ldi r25,hi8(0)
 4559               	.LBB255:
 4560               	.LBB256:
 4561               	.LBB257:
 4562               	.LBB258:
 4563               	.LM606:
 4564 1892 20E2      		ldi r18,lo8(32)
 4565               	.L404:
 4566 1894 FC01      		movw r30,r24
 4567 1896 E050      		subi r30,lo8(-(DispBuf))
 4568 1898 F040      		sbci r31,hi8(-(DispBuf))
 4569 189a 2083      		st Z,r18
 4570 189c 0196      		adiw r24,1
 4571               	.LM607:
 4572 189e 8032      		cpi r24,32
 4573 18a0 9105      		cpc r25,__zero_reg__
 4574 18a2 01F4      		brne .L404
 4575               	.LBE258:
 4576               	.LBE257:
 4577               	.LBE256:
 4578               	.LBE255:
 4579               	.LM608:
 4580 18a4 0E94 0000 		call ShowType
 4581               	.LM609:
 4582 18a8 0E94 0000 		call ShowFreqPeroid
 4583               	.LM610:
 4584 18ac 81E1      		ldi r24,lo8(17)
 4585 18ae 0E94 0000 		call ShowAmp
 4586               	.LM611:
 4587 18b2 88E1      		ldi r24,lo8(24)
 4588 18b4 0E94 0000 		call ShowOfs
 4589               	.LM612:
 4590 18b8 0E94 0000 		call ShowFocus
 4591               	/* epilogue start */
 4592               	.LM613:
 4593 18bc 0895      		ret
 4594               	.LFE5:
 4596               	.global	ShowSweep
 4598               	ShowSweep:
 4599               	.LFB54:
 4600               	.LM614:
 4601               	/* prologue: function */
 4602               	/* frame size = 0 */
 4603               	.LM615:
 4604 18be 80E0      		ldi r24,lo8(0)
 4605 18c0 90E0      		ldi r25,hi8(0)
 4606               	.LBB259:
 4607               	.LBB260:
 4608               	.LBB261:
 4609               	.LBB262:
 4610               	.LM616:
 4611 18c2 20E2      		ldi r18,lo8(32)
 4612               	.L408:
 4613 18c4 FC01      		movw r30,r24
 4614 18c6 E050      		subi r30,lo8(-(DispBuf))
 4615 18c8 F040      		sbci r31,hi8(-(DispBuf))
 4616 18ca 2083      		st Z,r18
 4617 18cc 0196      		adiw r24,1
 4618               	.LM617:
 4619 18ce 8032      		cpi r24,32
 4620 18d0 9105      		cpc r25,__zero_reg__
 4621 18d2 01F4      		brne .L408
 4622 18d4 80E0      		ldi r24,lo8(0)
 4623 18d6 90E0      		ldi r25,hi8(0)
 4624 18d8 00C0      		rjmp .L409
 4625               	.LVL277:
 4626               	.L410:
 4627               	.LBE262:
 4628               	.LBE261:
 4629               	.LBE260:
 4630               	.LBE259:
 4631               	.LBB263:
 4632               	.LBB264:
 4633               	.LM618:
 4634 18da E32F      		mov r30,r19
 4635 18dc F0E0      		ldi r31,lo8(0)
 4636 18de E050      		subi r30,lo8(-(DispBuf))
 4637 18e0 F040      		sbci r31,hi8(-(DispBuf))
 4638 18e2 2083      		st Z,r18
 4639               	.L409:
 4640 18e4 382F      		mov r19,r24
 4641               	.LBB265:
 4642               	.LM619:
 4643 18e6 FC01      		movw r30,r24
 4644 18e8 E050      		subi r30,lo8(-(ModeNames+10))
 4645 18ea F040      		sbci r31,hi8(-(ModeNames+10))
 4646               	/* #APP */
 4647               	 ;  2641 "FuncGen.c" 1
 4648 18ec 2491      		lpm r18, Z
 4649               		
 4650               	 ;  0 "" 2
 4651               	/* #NOAPP */
 4652 18ee 0196      		adiw r24,1
 4653               	.LBE265:
 4654 18f0 2223      		tst r18
 4655 18f2 01F4      		brne .L410
 4656               	.LBE264:
 4657               	.LBE263:
 4658               	.LM620:
 4659 18f4 8091 0000 		lds r24,TrigCtrl
 4660 18f8 8A32      		cpi r24,lo8(42)
 4661 18fa 01F4      		brne .L411
 4662               	.LM621:
 4663 18fc 8093 0000 		sts DispBuf+6,r24
 4664               	.L411:
 4665               	.LM622:
 4666 1900 8091 0000 		lds r24,miniDDS+60
 4667 1904 8093 0000 		sts DispBuf+7,r24
 4668               	.LM623:
 4669 1908 0E94 0000 		call ShowType
 4670               	.LVL278:
 4671               	.LM624:
 4672 190c 4091 0000 		lds r20,CurrFocus
 4673 1910 242F      		mov r18,r20
 4674 1912 30E0      		ldi r19,lo8(0)
 4675 1914 C901      		movw r24,r18
 4676               	.LVL279:
 4677 1916 B3E0      		ldi r27,3
 4678 1918 880F      	1:	lsl r24
 4679 191a 991F      		rol r25
 4680 191c BA95      		dec r27
 4681 191e 01F4      		brne 1b
 4682 1920 821B      		sub r24,r18
 4683 1922 930B      		sbc r25,r19
 4684 1924 8050      		subi r24,lo8(-(SweepParams-42))
 4685 1926 9040      		sbci r25,hi8(-(SweepParams-42))
 4686 1928 60E1      		ldi r22,lo8(16)
 4687               	.LVL280:
 4688 192a 00C0      		rjmp .L412
 4689               	.LVL281:
 4690               	.L413:
 4691               	.LBB266:
 4692               	.LBB267:
 4693               	.LM625:
 4694 192c E62F      		mov r30,r22
 4695               	.LVL282:
 4696 192e F0E0      		ldi r31,lo8(0)
 4697 1930 E050      		subi r30,lo8(-(DispBuf))
 4698 1932 F040      		sbci r31,hi8(-(DispBuf))
 4699 1934 7083      		st Z,r23
 4700 1936 6F5F      		subi r22,lo8(-(1))
 4701               	.L412:
 4702 1938 FC01      		movw r30,r24
 4703               	.LVL283:
 4704               	.LBB268:
 4705               	.LM626:
 4706 193a 0196      		adiw r24,1
 4707               	/* #APP */
 4708               	 ;  2641 "FuncGen.c" 1
 4709 193c 7491      		lpm r23, Z
 4710               		
 4711               	 ;  0 "" 2
 4712               	/* #NOAPP */
 4713               	.LBE268:
 4714 193e 7723      		tst r23
 4715 1940 01F4      		brne .L413
 4716               	.LBE267:
 4717               	.LBE266:
 4718               	.LM627:
 4719 1942 842F      		mov r24,r20
 4720               	.LVL284:
 4721 1944 8650      		subi r24,lo8(-(-6))
 4722 1946 8430      		cpi r24,lo8(4)
 4723 1948 00F4      		brsh .L414
 4724               	.LM628:
 4725 194a C901      		movw r24,r18
 4726               	.LVL285:
 4727 194c 880F      		lsl r24
 4728 194e 991F      		rol r25
 4729 1950 820F      		add r24,r18
 4730 1952 931F      		adc r25,r19
 4731 1954 8050      		subi r24,lo8(-(SweepParamUnit-18))
 4732 1956 9040      		sbci r25,hi8(-(SweepParamUnit-18))
 4733 1958 2EE1      		ldi r18,lo8(30)
 4734               	.LVL286:
 4735 195a 00C0      		rjmp .L415
 4736               	.LVL287:
 4737               	.L416:
 4738               	.LBB269:
 4739               	.LBB270:
 4740               	.LM629:
 4741 195c E22F      		mov r30,r18
 4742               	.LVL288:
 4743 195e F0E0      		ldi r31,lo8(0)
 4744 1960 E050      		subi r30,lo8(-(DispBuf))
 4745 1962 F040      		sbci r31,hi8(-(DispBuf))
 4746 1964 3083      		st Z,r19
 4747 1966 2F5F      		subi r18,lo8(-(1))
 4748               	.LVL289:
 4749               	.L415:
 4750 1968 FC01      		movw r30,r24
 4751               	.LVL290:
 4752               	.LBB271:
 4753               	.LM630:
 4754 196a 0196      		adiw r24,1
 4755               	/* #APP */
 4756               	 ;  2641 "FuncGen.c" 1
 4757 196c 3491      		lpm r19, Z
 4758               		
 4759               	 ;  0 "" 2
 4760               	/* #NOAPP */
 4761               	.LBE271:
 4762 196e 3323      		tst r19
 4763 1970 01F4      		brne .L416
 4764               	.LBE270:
 4765               	.LBE269:
 4766               	.LM631:
 4767 1972 50E0      		ldi r21,lo8(0)
 4768 1974 440F      		lsl r20
 4769 1976 551F      		rol r21
 4770 1978 440F      		lsl r20
 4771 197a 551F      		rol r21
 4772 197c 4050      		subi r20,lo8(-(miniDDS+20))
 4773 197e 5040      		sbci r21,hi8(-(miniDDS+20))
 4774 1980 86E1      		ldi r24,lo8(22)
 4775               	.LVL291:
 4776 1982 67E0      		ldi r22,lo8(7)
 4777               	.LVL292:
 4778 1984 0E94 0000 		call DispWholeNum
 4779               	.LVL293:
 4780               	.L414:
 4781               	.LM632:
 4782 1988 8091 0000 		lds r24,CurrFocus
 4783 198c 8A30      		cpi r24,lo8(10)
 4784 198e 01F4      		brne .L417
 4785               	.LM633:
 4786 1990 85E1      		ldi r24,lo8(21)
 4787 1992 0E94 0000 		call ShowAmp
 4788               	.LVL294:
 4789 1996 00C0      		rjmp .L418
 4790               	.LVL295:
 4791               	.L417:
 4792               	.LM634:
 4793 1998 6091 0000 		lds r22,miniDDS+7
 4794 199c 7091 0000 		lds r23,(miniDDS+7)+1
 4795 19a0 8091 0000 		lds r24,(miniDDS+7)+2
 4796 19a4 9091 0000 		lds r25,(miniDDS+7)+3
 4797               	.LVL296:
 4798 19a8 24E6      		ldi r18,lo8(100)
 4799 19aa 30E0      		ldi r19,hi8(100)
 4800 19ac 40E0      		ldi r20,hlo8(100)
 4801 19ae 50E0      		ldi r21,hhi8(100)
 4802 19b0 0E94 0000 		call __mulsi3
 4803               	.LVL297:
 4804 19b4 20E1      		ldi r18,lo8(10000)
 4805 19b6 37E2      		ldi r19,hi8(10000)
 4806 19b8 40E0      		ldi r20,hlo8(10000)
 4807 19ba 50E0      		ldi r21,hhi8(10000)
 4808 19bc 0E94 0000 		call __udivmodsi4
 4809 19c0 822F      		mov r24,r18
 4810 19c2 0E94 0000 		call SetDigitalPot
 4811               	.LVL298:
 4812               	.L418:
 4813               	.LM635:
 4814 19c6 8091 0000 		lds r24,CurrFocus
 4815 19ca 8B30      		cpi r24,lo8(11)
 4816 19cc 01F4      		brne .L419
 4817               	.LM636:
 4818 19ce 84E1      		ldi r24,lo8(20)
 4819 19d0 0E94 0000 		call ShowOfs
 4820 19d4 00C0      		rjmp .L420
 4821               	.L419:
 4822               	.LM637:
 4823 19d6 6091 0000 		lds r22,miniDDS+11
 4824 19da 7091 0000 		lds r23,(miniDDS+11)+1
 4825 19de 8091 0000 		lds r24,(miniDDS+11)+2
 4826 19e2 9091 0000 		lds r25,(miniDDS+11)+3
 4827 19e6 0E94 0000 		call UpdateOfs
 4828               	.L420:
 4829               	.LM638:
 4830 19ea 8091 0000 		lds r24,Flags
 4831 19ee 8068      		ori r24,lo8(-128)
 4832 19f0 8093 0000 		sts Flags,r24
 4833               	.LM639:
 4834 19f4 0E94 0000 		call SendSweep
 4835               	/* epilogue start */
 4836               	.LM640:
 4837 19f8 0895      		ret
 4838               	.LFE54:
 4840               	.global	ToggleSweepDir
 4842               	ToggleSweepDir:
 4843               	.LFB77:
 4844               	.LM641:
 4845               	/* prologue: function */
 4846               	/* frame size = 0 */
 4847               	.LM642:
 4848 19fa 8091 0000 		lds r24,miniDDS+60
 4849 19fe 8032      		cpi r24,lo8(32)
 4850 1a00 01F4      		brne .L424
 4851               	.LM643:
 4852 1a02 82E4      		ldi r24,lo8(66)
 4853 1a04 00C0      		rjmp .L427
 4854               	.L424:
 4855               	.LM644:
 4856 1a06 80E2      		ldi r24,lo8(32)
 4857               	.L427:
 4858 1a08 8093 0000 		sts miniDDS+60,r24
 4859               	.LM645:
 4860 1a0c 80E0      		ldi r24,lo8(miniDDS_EE+60)
 4861 1a0e 90E0      		ldi r25,hi8(miniDDS_EE+60)
 4862 1a10 6091 0000 		lds r22,miniDDS+60
 4863 1a14 0E94 0000 		call EE_Write
 4864               	.LM646:
 4865 1a18 0E94 0000 		call ShowSweep
 4866               	.LM647:
 4867 1a1c 8091 0000 		lds r24,Flags
 4868 1a20 8068      		ori r24,lo8(-128)
 4869 1a22 8093 0000 		sts Flags,r24
 4870               	/* epilogue start */
 4871               	.LM648:
 4872 1a26 0895      		ret
 4873               	.LFE77:
 4875               	.global	ToggleTrigCtrl
 4877               	ToggleTrigCtrl:
 4878               	.LFB76:
 4879               	.LM649:
 4880               	/* prologue: function */
 4881               	/* frame size = 0 */
 4882               	.LM650:
 4883 1a28 8091 0000 		lds r24,TrigCtrl
 4884 1a2c 8E33      		cpi r24,lo8(62)
 4885 1a2e 01F4      		brne .L429
 4886               	.LM651:
 4887 1a30 8AE2      		ldi r24,lo8(42)
 4888 1a32 00C0      		rjmp .L435
 4889               	.L429:
 4890               	.LM652:
 4891 1a34 8EE3      		ldi r24,lo8(62)
 4892               	.L435:
 4893 1a36 8093 0000 		sts TrigCtrl,r24
 4894               	.LM653:
 4895 1a3a 8091 0000 		lds r24,SysState
 4896 1a3e 8823      		tst r24
 4897 1a40 01F0      		breq .L432
 4898 1a42 8130      		cpi r24,lo8(1)
 4899 1a44 01F4      		brne .L431
 4900 1a46 00C0      		rjmp .L436
 4901               	.L432:
 4902               	.LM654:
 4903 1a48 0E94 0000 		call ShowFocus
 4904               	.LM655:
 4905 1a4c 0E94 0000 		call SendDDS
 4906 1a50 00C0      		rjmp .L431
 4907               	.L436:
 4908               	.LM656:
 4909 1a52 0E94 0000 		call ShowSweep
 4910               	.L431:
 4911               	.LM657:
 4912 1a56 8091 0000 		lds r24,Flags
 4913 1a5a 8068      		ori r24,lo8(-128)
 4914 1a5c 8093 0000 		sts Flags,r24
 4915               	/* epilogue start */
 4916               	.LM658:
 4917 1a60 0895      		ret
 4918               	.LFE76:
 4920               	.global	SweepParamInputHandle
 4922               	SweepParamInputHandle:
 4923               	.LFB44:
 4924               	.LM659:
 4925 1a62 EF92      		push r14
 4926 1a64 FF92      		push r15
 4927 1a66 0F93      		push r16
 4928 1a68 1F93      		push r17
 4929 1a6a DF93      		push r29
 4930 1a6c CF93      		push r28
 4931 1a6e 0F92      		push __tmp_reg__
 4932 1a70 CDB7      		in r28,__SP_L__
 4933 1a72 DEB7      		in r29,__SP_H__
 4934               	/* prologue: function */
 4935               	/* frame size = 1 */
 4936               	.LM660:
 4937 1a74 8091 0000 		lds r24,CurrFocus
 4938 1a78 E82F      		mov r30,r24
 4939 1a7a F0E0      		ldi r31,lo8(0)
 4940 1a7c EE0F      		lsl r30
 4941 1a7e FF1F      		rol r31
 4942 1a80 EE0F      		lsl r30
 4943 1a82 FF1F      		rol r31
 4944 1a84 E050      		subi r30,lo8(-(miniDDS+20))
 4945 1a86 F040      		sbci r31,hi8(-(miniDDS+20))
 4946 1a88 E080      		ld r14,Z
 4947 1a8a F180      		ldd r15,Z+1
 4948 1a8c 0281      		ldd r16,Z+2
 4949 1a8e 1381      		ldd r17,Z+3
 4950               	.LVL299:
 4951               	.LM661:
 4952 1a90 9091 0000 		lds r25,NumInput+11
 4953 1a94 9F30      		cpi r25,lo8(15)
 4954 1a96 01F0      		breq .L439
 4955 1a98 9031      		cpi r25,lo8(16)
 4956 1a9a 01F0      		breq .+2
 4957 1a9c 00C0      		rjmp .L457
 4958 1a9e 00C0      		rjmp .L460
 4959               	.L439:
 4960               	.LM662:
 4961 1aa0 8650      		subi r24,lo8(-(-6))
 4962 1aa2 8230      		cpi r24,lo8(2)
 4963 1aa4 00F4      		brsh .L455
 4964 1aa6 00C0      		rjmp .L461
 4965               	.L460:
 4966               	.LM663:
 4967 1aa8 8650      		subi r24,lo8(-(-6))
 4968 1aaa 8230      		cpi r24,lo8(2)
 4969 1aac 00F0      		brlo .L443
 4970 1aae 21E0      		ldi r18,lo8(1)
 4971 1ab0 2983      		std Y+1,r18
 4972               	.LVL300:
 4973 1ab2 00C0      		rjmp .L444
 4974               	.LVL301:
 4975               	.L443:
 4976 1ab4 1982      		std Y+1,__zero_reg__
 4977               	.LVL302:
 4978 1ab6 81E0      		ldi r24,lo8(1)
 4979               	.LVL303:
 4980 1ab8 00C0      		rjmp .L445
 4981               	.LVL304:
 4982               	.L455:
 4983               	.LM664:
 4984 1aba 81E0      		ldi r24,lo8(1)
 4985 1abc 8983      		std Y+1,r24
 4986               	.LVL305:
 4987 1abe 82E0      		ldi r24,lo8(2)
 4988               	.LVL306:
 4989               	.L445:
 4990               	.LM665:
 4991 1ac0 8150      		subi r24,lo8(-(-1))
 4992 1ac2 8230      		cpi r24,lo8(2)
 4993 1ac4 00F4      		brsh .L448
 4994 1ac6 00C0      		rjmp .L462
 4995               	.LVL307:
 4996               	.L461:
 4997 1ac8 1982      		std Y+1,__zero_reg__
 4998               	.LVL308:
 4999               	.L444:
 5000               	.LM666:
 5001 1aca 0E94 0000 		call CalWholePart
 5002 1ace 00C0      		rjmp .L459
 5003               	.LVL309:
 5004               	.L462:
 5005               	.LM667:
 5006 1ad0 0E94 0000 		call CalValue
 5007               	.LVL310:
 5008               	.L459:
 5009 1ad4 8823      		tst r24
 5010 1ad6 01F0      		breq .L448
 5011               	.LM668:
 5012 1ad8 E090 0000 		lds r14,NumInput+7
 5013 1adc F090 0000 		lds r15,(NumInput+7)+1
 5014 1ae0 0091 0000 		lds r16,(NumInput+7)+2
 5015 1ae4 1091 0000 		lds r17,(NumInput+7)+3
 5016               	.LVL311:
 5017               	.L448:
 5018               	.LM669:
 5019 1ae8 E981      		ldd r30,Y+1
 5020 1aea E130      		cpi r30,lo8(1)
 5021 1aec 01F4      		brne .L449
 5022 1aee E114      		cp r14,__zero_reg__
 5023 1af0 F104      		cpc r15,__zero_reg__
 5024 1af2 0105      		cpc r16,__zero_reg__
 5025 1af4 1105      		cpc r17,__zero_reg__
 5026 1af6 01F0      		breq .L450
 5027               	.L449:
 5028               	.LBB272:
 5029               	.LBB273:
 5030               	.LM670:
 5031 1af8 8091 0000 		lds r24,CurrFocus
 5032               	.LVL312:
 5033 1afc E82F      		mov r30,r24
 5034 1afe F0E0      		ldi r31,lo8(0)
 5035 1b00 EE0F      		lsl r30
 5036 1b02 FF1F      		rol r31
 5037 1b04 EE0F      		lsl r30
 5038 1b06 FF1F      		rol r31
 5039 1b08 E050      		subi r30,lo8(-(miniDDS+20))
 5040 1b0a F040      		sbci r31,hi8(-(miniDDS+20))
 5041 1b0c D801      		movw r26,r16
 5042 1b0e C701      		movw r24,r14
 5043 1b10 8034      		cpi r24,lo8(1000000)
 5044 1b12 22E4      		ldi r18,hi8(1000000)
 5045 1b14 9207      		cpc r25,r18
 5046 1b16 2FE0      		ldi r18,hlo8(1000000)
 5047 1b18 A207      		cpc r26,r18
 5048 1b1a 20E0      		ldi r18,hhi8(1000000)
 5049 1b1c B207      		cpc r27,r18
 5050 1b1e 00F0      		brlo .L451
 5051               	.LVL313:
 5052 1b20 8FE3      		ldi r24,lo8(999999)
 5053 1b22 92E4      		ldi r25,hi8(999999)
 5054 1b24 AFE0      		ldi r26,hlo8(999999)
 5055 1b26 B0E0      		ldi r27,hhi8(999999)
 5056               	.LVL314:
 5057               	.L451:
 5058 1b28 8083      		st Z,r24
 5059 1b2a 9183      		std Z+1,r25
 5060 1b2c A283      		std Z+2,r26
 5061 1b2e B383      		std Z+3,r27
 5062               	.LVL315:
 5063               	.L450:
 5064               	.LBE273:
 5065               	.LBE272:
 5066               	.LM671:
 5067 1b30 8091 0000 		lds r24,miniDDS+56
 5068 1b34 9091 0000 		lds r25,(miniDDS+56)+1
 5069 1b38 A091 0000 		lds r26,(miniDDS+56)+2
 5070 1b3c B091 0000 		lds r27,(miniDDS+56)+3
 5071               	.LVL316:
 5072 1b40 8050      		subi r24,lo8(65536)
 5073 1b42 9040      		sbci r25,hi8(65536)
 5074 1b44 A140      		sbci r26,hlo8(65536)
 5075 1b46 B040      		sbci r27,hhi8(65536)
 5076 1b48 00F0      		brlo .L452
 5077               	.LM672:
 5078 1b4a 8FEF      		ldi r24,lo8(65535)
 5079 1b4c 9FEF      		ldi r25,hi8(65535)
 5080 1b4e A0E0      		ldi r26,hlo8(65535)
 5081 1b50 B0E0      		ldi r27,hhi8(65535)
 5082 1b52 8093 0000 		sts miniDDS+56,r24
 5083 1b56 9093 0000 		sts (miniDDS+56)+1,r25
 5084 1b5a A093 0000 		sts (miniDDS+56)+2,r26
 5085 1b5e B093 0000 		sts (miniDDS+56)+3,r27
 5086               	.L452:
 5087               	.LM673:
 5088 1b62 0E94 0000 		call SaveSetting
 5089               	.L457:
 5090               	.LM674:
 5091 1b66 0E94 0000 		call ShowSweep
 5092               	/* epilogue start */
 5093               	.LM675:
 5094 1b6a 0F90      		pop __tmp_reg__
 5095 1b6c CF91      		pop r28
 5096 1b6e DF91      		pop r29
 5097 1b70 1F91      		pop r17
 5098 1b72 0F91      		pop r16
 5099 1b74 FF90      		pop r15
 5100 1b76 EF90      		pop r14
 5101               	.LVL317:
 5102 1b78 0895      		ret
 5103               	.LFE44:
 5105               	.global	Dec
 5107               	Dec:
 5108               	.LFB40:
 5109               	.LM676:
 5110               	/* prologue: function */
 5111               	/* frame size = 0 */
 5112               	.LM677:
 5113 1b7a 8091 0000 		lds r24,SysState
 5114 1b7e 8823      		tst r24
 5115 1b80 01F0      		breq .+2
 5116 1b82 00C0      		rjmp .L464
 5117               	.LM678:
 5118 1b84 8091 0000 		lds r24,CurrFocus
 5119 1b88 8130      		cpi r24,lo8(1)
 5120 1b8a 01F4      		brne .+2
 5121 1b8c 00C0      		rjmp .L467
 5122 1b8e 8130      		cpi r24,lo8(1)
 5123 1b90 00F0      		brlo .L466
 5124 1b92 8230      		cpi r24,lo8(2)
 5125 1b94 01F0      		breq .+2
 5126 1b96 00C0      		rjmp .L465
 5127 1b98 00C0      		rjmp .L488
 5128               	.L466:
 5129               	.LM679:
 5130 1b9a 8091 0000 		lds r24,miniDDS+5
 5131 1b9e 8823      		tst r24
 5132 1ba0 01F4      		brne .L469
 5133               	.LM680:
 5134 1ba2 8091 0000 		lds r24,miniDDS+1
 5135 1ba6 9091 0000 		lds r25,(miniDDS+1)+1
 5136 1baa A091 0000 		lds r26,(miniDDS+1)+2
 5137 1bae B091 0000 		lds r27,(miniDDS+1)+3
 5138 1bb2 2091 0000 		lds r18,miniDDS+16
 5139 1bb6 3091 0000 		lds r19,(miniDDS+16)+1
 5140 1bba 4091 0000 		lds r20,(miniDDS+16)+2
 5141 1bbe 5091 0000 		lds r21,(miniDDS+16)+3
 5142 1bc2 8217      		cp r24,r18
 5143 1bc4 9307      		cpc r25,r19
 5144 1bc6 A407      		cpc r26,r20
 5145 1bc8 B507      		cpc r27,r21
 5146 1bca 00F0      		brlo .L470
 5147 1bcc 00C0      		rjmp .L487
 5148               	.L469:
 5149               	.LM681:
 5150 1bce 8091 0000 		lds r24,miniDDS+1
 5151 1bd2 9091 0000 		lds r25,(miniDDS+1)+1
 5152 1bd6 A091 0000 		lds r26,(miniDDS+1)+2
 5153 1bda B091 0000 		lds r27,(miniDDS+1)+3
 5154 1bde 2091 0000 		lds r18,miniDDS+20
 5155 1be2 3091 0000 		lds r19,(miniDDS+20)+1
 5156 1be6 4091 0000 		lds r20,(miniDDS+20)+2
 5157 1bea 5091 0000 		lds r21,(miniDDS+20)+3
 5158 1bee 2817      		cp r18,r24
 5159 1bf0 3907      		cpc r19,r25
 5160 1bf2 4A07      		cpc r20,r26
 5161 1bf4 5B07      		cpc r21,r27
 5162 1bf6 00F4      		brsh .L470
 5163               	.L487:
 5164               	.LM682:
 5165 1bf8 821B      		sub r24,r18
 5166 1bfa 930B      		sbc r25,r19
 5167 1bfc A40B      		sbc r26,r20
 5168 1bfe B50B      		sbc r27,r21
 5169 1c00 8093 0000 		sts miniDDS+1,r24
 5170 1c04 9093 0000 		sts (miniDDS+1)+1,r25
 5171 1c08 A093 0000 		sts (miniDDS+1)+2,r26
 5172 1c0c B093 0000 		sts (miniDDS+1)+3,r27
 5173               	.L470:
 5174               	.LM683:
 5175 1c10 0E94 0000 		call ShowFreqPeroid
 5176 1c14 00C0      		rjmp .L465
 5177               	.L467:
 5178               	.LM684:
 5179 1c16 8091 0000 		lds r24,miniDDS+7
 5180 1c1a 9091 0000 		lds r25,(miniDDS+7)+1
 5181 1c1e A091 0000 		lds r26,(miniDDS+7)+2
 5182 1c22 B091 0000 		lds r27,(miniDDS+7)+3
 5183 1c26 8436      		cpi r24,lo8(100)
 5184 1c28 9105      		cpc r25,__zero_reg__
 5185 1c2a A105      		cpc r26,__zero_reg__
 5186 1c2c B105      		cpc r27,__zero_reg__
 5187 1c2e 00F0      		brlo .L471
 5188               	.LM685:
 5189 1c30 8456      		subi r24,lo8(-(-100))
 5190 1c32 9040      		sbci r25,hi8(-(-100))
 5191 1c34 A040      		sbci r26,hlo8(-(-100))
 5192 1c36 B040      		sbci r27,hhi8(-(-100))
 5193 1c38 8093 0000 		sts miniDDS+7,r24
 5194 1c3c 9093 0000 		sts (miniDDS+7)+1,r25
 5195 1c40 A093 0000 		sts (miniDDS+7)+2,r26
 5196 1c44 B093 0000 		sts (miniDDS+7)+3,r27
 5197               	.L471:
 5198               	.LM686:
 5199 1c48 81E1      		ldi r24,lo8(17)
 5200 1c4a 0E94 0000 		call ShowAmp
 5201 1c4e 00C0      		rjmp .L465
 5202               	.L488:
 5203               	.LM687:
 5204 1c50 8091 0000 		lds r24,miniDDS+11
 5205 1c54 9091 0000 		lds r25,(miniDDS+11)+1
 5206 1c58 A091 0000 		lds r26,(miniDDS+11)+2
 5207 1c5c B091 0000 		lds r27,(miniDDS+11)+3
 5208 1c60 8436      		cpi r24,lo8(100)
 5209 1c62 9105      		cpc r25,__zero_reg__
 5210 1c64 A105      		cpc r26,__zero_reg__
 5211 1c66 B105      		cpc r27,__zero_reg__
 5212 1c68 00F0      		brlo .L472
 5213               	.LM688:
 5214 1c6a 8456      		subi r24,lo8(-(-100))
 5215 1c6c 9040      		sbci r25,hi8(-(-100))
 5216 1c6e A040      		sbci r26,hlo8(-(-100))
 5217 1c70 B040      		sbci r27,hhi8(-(-100))
 5218 1c72 8093 0000 		sts miniDDS+11,r24
 5219 1c76 9093 0000 		sts (miniDDS+11)+1,r25
 5220 1c7a A093 0000 		sts (miniDDS+11)+2,r26
 5221 1c7e B093 0000 		sts (miniDDS+11)+3,r27
 5222               	.L472:
 5223               	.LM689:
 5224 1c82 88E1      		ldi r24,lo8(24)
 5225 1c84 0E94 0000 		call ShowOfs
 5226               	.L465:
 5227               	.LM690:
 5228 1c88 0E94 0000 		call SaveSetting
 5229               	.L464:
 5230               	.LM691:
 5231 1c8c 8091 0000 		lds r24,SysState
 5232 1c90 8130      		cpi r24,lo8(1)
 5233 1c92 01F4      		brne .L473
 5234 1c94 8091 0000 		lds r24,CurrFocus
 5235 1c98 8630      		cpi r24,lo8(6)
 5236 1c9a 00F0      		brlo .L473
 5237 1c9c 8A30      		cpi r24,lo8(10)
 5238 1c9e 00F4      		brsh .L473
 5239               	.LM692:
 5240 1ca0 8150      		subi r24,lo8(-(-1))
 5241 1ca2 8093 0000 		sts CurrFocus,r24
 5242               	.LM693:
 5243 1ca6 8530      		cpi r24,lo8(5)
 5244 1ca8 01F4      		brne .L474
 5245               	.LM694:
 5246 1caa 86E0      		ldi r24,lo8(6)
 5247 1cac 8093 0000 		sts CurrFocus,r24
 5248               	.L474:
 5249               	.LM695:
 5250 1cb0 0E94 0000 		call ShowSweep
 5251               	.L473:
 5252               	.LM696:
 5253 1cb4 8091 0000 		lds r24,SysState
 5254 1cb8 8230      		cpi r24,lo8(2)
 5255 1cba 01F4      		brne .L475
 5256               	.LM697:
 5257 1cbc 8091 0000 		lds r24,CurrFocus
 5258 1cc0 8330      		cpi r24,lo8(3)
 5259 1cc2 01F0      		breq .L477
 5260 1cc4 8430      		cpi r24,lo8(4)
 5261 1cc6 01F4      		brne .L476
 5262 1cc8 00C0      		rjmp .L489
 5263               	.L477:
 5264               	.LM698:
 5265 1cca 2091 0000 		lds r18,miniDDS+24
 5266 1cce 3091 0000 		lds r19,(miniDDS+24)+1
 5267 1cd2 6091 0000 		lds r22,miniDDS+28
 5268 1cd6 7091 0000 		lds r23,(miniDDS+28)+1
 5269 1cda 4091 0000 		lds r20,miniDDS+34
 5270 1cde 5091 0000 		lds r21,(miniDDS+34)+1
 5271 1ce2 CA01      		movw r24,r20
 5272 1ce4 860F      		add r24,r22
 5273 1ce6 971F      		adc r25,r23
 5274 1ce8 8217      		cp r24,r18
 5275 1cea 9307      		cpc r25,r19
 5276 1cec 00F4      		brsh .L479
 5277               	.LM699:
 5278 1cee 241B      		sub r18,r20
 5279 1cf0 350B      		sbc r19,r21
 5280 1cf2 3093 0000 		sts (miniDDS+24)+1,r19
 5281 1cf6 2093 0000 		sts miniDDS+24,r18
 5282 1cfa 00C0      		rjmp .L480
 5283               	.L479:
 5284               	.LM700:
 5285 1cfc 7093 0000 		sts (miniDDS+24)+1,r23
 5286 1d00 6093 0000 		sts miniDDS+24,r22
 5287               	.L480:
 5288               	.LM701:
 5289 1d04 0E94 0000 		call ShowPW
 5290 1d08 00C0      		rjmp .L476
 5291               	.L489:
 5292               	.LM702:
 5293 1d0a 8091 0000 		lds r24,miniDDS+26
 5294 1d0e 9091 0000 		lds r25,(miniDDS+26)+1
 5295 1d12 8536      		cpi r24,101
 5296 1d14 9105      		cpc r25,__zero_reg__
 5297 1d16 00F0      		brlo .L481
 5298               	.LM703:
 5299 1d18 8456      		subi r24,lo8(-(-100))
 5300 1d1a 9040      		sbci r25,hi8(-(-100))
 5301 1d1c 9093 0000 		sts (miniDDS+26)+1,r25
 5302 1d20 8093 0000 		sts miniDDS+26,r24
 5303 1d24 00C0      		rjmp .L482
 5304               	.L481:
 5305               	.LM704:
 5306 1d26 1092 0000 		sts (miniDDS+26)+1,__zero_reg__
 5307 1d2a 1092 0000 		sts miniDDS+26,__zero_reg__
 5308               	.L482:
 5309               	.LM705:
 5310 1d2e 0E94 0000 		call ShowServoAmp
 5311               	.L476:
 5312               	.LM706:
 5313 1d32 0E94 0000 		call SaveSetting
 5314               	.L475:
 5315               	.LM707:
 5316 1d36 8091 0000 		lds r24,SysState
 5317 1d3a 8430      		cpi r24,lo8(4)
 5318 1d3c 01F4      		brne .L483
 5319               	.LM708:
 5320 1d3e 8091 0000 		lds r24,CurrParam
 5321 1d42 8823      		tst r24
 5322 1d44 01F0      		breq .L484
 5323               	.LM709:
 5324 1d46 8150      		subi r24,lo8(-(-1))
 5325 1d48 8093 0000 		sts CurrParam,r24
 5326               	.L484:
 5327               	.LM710:
 5328 1d4c 0E94 0000 		call ShowSVParam
 5329               	.L483:
 5330               	.LM711:
 5331 1d50 8091 0000 		lds r24,SysState
 5332 1d54 8530      		cpi r24,lo8(5)
 5333 1d56 01F4      		brne .L486
 5334               	.LM712:
 5335 1d58 8091 0000 		lds r24,CurrMode
 5336 1d5c 8823      		tst r24
 5337 1d5e 01F0      		breq .L486
 5338               	.LM713:
 5339 1d60 8150      		subi r24,lo8(-(-1))
 5340 1d62 8093 0000 		sts CurrMode,r24
 5341               	.LM714:
 5342 1d66 0E94 0000 		call ShowMode
 5343               	.L486:
 5344 1d6a 0895      		ret
 5345               	.LFE40:
 5347               	.global	Inc
 5349               	Inc:
 5350               	.LFB39:
 5351               	.LM715:
 5352               	/* prologue: function */
 5353               	/* frame size = 0 */
 5354               	.LM716:
 5355 1d6c 8091 0000 		lds r24,SysState
 5356 1d70 8823      		tst r24
 5357 1d72 01F0      		breq .+2
 5358 1d74 00C0      		rjmp .L491
 5359               	.LM717:
 5360 1d76 8091 0000 		lds r24,CurrFocus
 5361 1d7a 8130      		cpi r24,lo8(1)
 5362 1d7c 01F0      		breq .L494
 5363 1d7e 8130      		cpi r24,lo8(1)
 5364 1d80 00F0      		brlo .L493
 5365 1d82 8230      		cpi r24,lo8(2)
 5366 1d84 01F0      		breq .+2
 5367 1d86 00C0      		rjmp .L492
 5368 1d88 00C0      		rjmp .L515
 5369               	.L493:
 5370               	.LM718:
 5371 1d8a 8091 0000 		lds r24,miniDDS+5
 5372 1d8e 8823      		tst r24
 5373 1d90 01F4      		brne .L496
 5374               	.LM719:
 5375 1d92 8091 0000 		lds r24,miniDDS+16
 5376 1d96 9091 0000 		lds r25,(miniDDS+16)+1
 5377 1d9a A091 0000 		lds r26,(miniDDS+16)+2
 5378 1d9e B091 0000 		lds r27,(miniDDS+16)+3
 5379 1da2 00C0      		rjmp .L514
 5380               	.L496:
 5381               	.LM720:
 5382 1da4 8091 0000 		lds r24,miniDDS+20
 5383 1da8 9091 0000 		lds r25,(miniDDS+20)+1
 5384 1dac A091 0000 		lds r26,(miniDDS+20)+2
 5385 1db0 B091 0000 		lds r27,(miniDDS+20)+3
 5386               	.L514:
 5387 1db4 2091 0000 		lds r18,miniDDS+1
 5388 1db8 3091 0000 		lds r19,(miniDDS+1)+1
 5389 1dbc 4091 0000 		lds r20,(miniDDS+1)+2
 5390 1dc0 5091 0000 		lds r21,(miniDDS+1)+3
 5391 1dc4 820F      		add r24,r18
 5392 1dc6 931F      		adc r25,r19
 5393 1dc8 A41F      		adc r26,r20
 5394 1dca B51F      		adc r27,r21
 5395 1dcc 8093 0000 		sts miniDDS+1,r24
 5396 1dd0 9093 0000 		sts (miniDDS+1)+1,r25
 5397 1dd4 A093 0000 		sts (miniDDS+1)+2,r26
 5398 1dd8 B093 0000 		sts (miniDDS+1)+3,r27
 5399               	.LM721:
 5400 1ddc 0E94 0000 		call ShowFreqPeroid
 5401 1de0 00C0      		rjmp .L492
 5402               	.L494:
 5403               	.LM722:
 5404 1de2 8091 0000 		lds r24,miniDDS+7
 5405 1de6 9091 0000 		lds r25,(miniDDS+7)+1
 5406 1dea A091 0000 		lds r26,(miniDDS+7)+2
 5407 1dee B091 0000 		lds r27,(miniDDS+7)+3
 5408 1df2 8C59      		subi r24,lo8(-(100))
 5409 1df4 9F4F      		sbci r25,hi8(-(100))
 5410 1df6 AF4F      		sbci r26,hlo8(-(100))
 5411 1df8 BF4F      		sbci r27,hhi8(-(100))
 5412 1dfa 8093 0000 		sts miniDDS+7,r24
 5413 1dfe 9093 0000 		sts (miniDDS+7)+1,r25
 5414 1e02 A093 0000 		sts (miniDDS+7)+2,r26
 5415 1e06 B093 0000 		sts (miniDDS+7)+3,r27
 5416               	.LM723:
 5417 1e0a 8151      		subi r24,lo8(10001)
 5418 1e0c 9742      		sbci r25,hi8(10001)
 5419 1e0e A040      		sbci r26,hlo8(10001)
 5420 1e10 B040      		sbci r27,hhi8(10001)
 5421 1e12 00F0      		brlo .L498
 5422               	.LM724:
 5423 1e14 80E1      		ldi r24,lo8(10000)
 5424 1e16 97E2      		ldi r25,hi8(10000)
 5425 1e18 A0E0      		ldi r26,hlo8(10000)
 5426 1e1a B0E0      		ldi r27,hhi8(10000)
 5427 1e1c 8093 0000 		sts miniDDS+7,r24
 5428 1e20 9093 0000 		sts (miniDDS+7)+1,r25
 5429 1e24 A093 0000 		sts (miniDDS+7)+2,r26
 5430 1e28 B093 0000 		sts (miniDDS+7)+3,r27
 5431               	.L498:
 5432               	.LM725:
 5433 1e2c 81E1      		ldi r24,lo8(17)
 5434 1e2e 0E94 0000 		call ShowAmp
 5435 1e32 00C0      		rjmp .L492
 5436               	.L515:
 5437               	.LM726:
 5438 1e34 8091 0000 		lds r24,miniDDS+11
 5439 1e38 9091 0000 		lds r25,(miniDDS+11)+1
 5440 1e3c A091 0000 		lds r26,(miniDDS+11)+2
 5441 1e40 B091 0000 		lds r27,(miniDDS+11)+3
 5442 1e44 8C59      		subi r24,lo8(-(100))
 5443 1e46 9F4F      		sbci r25,hi8(-(100))
 5444 1e48 AF4F      		sbci r26,hlo8(-(100))
 5445 1e4a BF4F      		sbci r27,hhi8(-(100))
 5446 1e4c 8093 0000 		sts miniDDS+11,r24
 5447 1e50 9093 0000 		sts (miniDDS+11)+1,r25
 5448 1e54 A093 0000 		sts (miniDDS+11)+2,r26
 5449 1e58 B093 0000 		sts (miniDDS+11)+3,r27
 5450               	.LM727:
 5451 1e5c 8151      		subi r24,lo8(10001)
 5452 1e5e 9742      		sbci r25,hi8(10001)
 5453 1e60 A040      		sbci r26,hlo8(10001)
 5454 1e62 B040      		sbci r27,hhi8(10001)
 5455 1e64 00F0      		brlo .L499
 5456               	.LM728:
 5457 1e66 80E1      		ldi r24,lo8(10000)
 5458 1e68 97E2      		ldi r25,hi8(10000)
 5459 1e6a A0E0      		ldi r26,hlo8(10000)
 5460 1e6c B0E0      		ldi r27,hhi8(10000)
 5461 1e6e 8093 0000 		sts miniDDS+11,r24
 5462 1e72 9093 0000 		sts (miniDDS+11)+1,r25
 5463 1e76 A093 0000 		sts (miniDDS+11)+2,r26
 5464 1e7a B093 0000 		sts (miniDDS+11)+3,r27
 5465               	.L499:
 5466               	.LM729:
 5467 1e7e 88E1      		ldi r24,lo8(24)
 5468 1e80 0E94 0000 		call ShowOfs
 5469               	.L492:
 5470               	.LM730:
 5471 1e84 0E94 0000 		call SaveSetting
 5472               	.L491:
 5473               	.LM731:
 5474 1e88 8091 0000 		lds r24,SysState
 5475 1e8c 8130      		cpi r24,lo8(1)
 5476 1e8e 01F4      		brne .L500
 5477 1e90 8091 0000 		lds r24,CurrFocus
 5478 1e94 8630      		cpi r24,lo8(6)
 5479 1e96 00F0      		brlo .L500
 5480 1e98 8A30      		cpi r24,lo8(10)
 5481 1e9a 00F4      		brsh .L500
 5482               	.LM732:
 5483 1e9c 8F5F      		subi r24,lo8(-(1))
 5484 1e9e 8093 0000 		sts CurrFocus,r24
 5485               	.LM733:
 5486 1ea2 8A30      		cpi r24,lo8(10)
 5487 1ea4 01F4      		brne .L501
 5488               	.LM734:
 5489 1ea6 89E0      		ldi r24,lo8(9)
 5490 1ea8 8093 0000 		sts CurrFocus,r24
 5491               	.L501:
 5492               	.LM735:
 5493 1eac 0E94 0000 		call ShowSweep
 5494               	.L500:
 5495               	.LM736:
 5496 1eb0 8091 0000 		lds r24,SysState
 5497 1eb4 8230      		cpi r24,lo8(2)
 5498 1eb6 01F0      		breq .+2
 5499 1eb8 00C0      		rjmp .L502
 5500               	.LM737:
 5501 1eba 8091 0000 		lds r24,CurrFocus
 5502 1ebe 8330      		cpi r24,lo8(3)
 5503 1ec0 01F0      		breq .L504
 5504 1ec2 8430      		cpi r24,lo8(4)
 5505 1ec4 01F4      		brne .L503
 5506 1ec6 00C0      		rjmp .L516
 5507               	.L504:
 5508               	.LM738:
 5509 1ec8 8091 0000 		lds r24,miniDDS+34
 5510 1ecc 9091 0000 		lds r25,(miniDDS+34)+1
 5511 1ed0 2091 0000 		lds r18,miniDDS+24
 5512 1ed4 3091 0000 		lds r19,(miniDDS+24)+1
 5513 1ed8 820F      		add r24,r18
 5514 1eda 931F      		adc r25,r19
 5515 1edc 9093 0000 		sts (miniDDS+24)+1,r25
 5516 1ee0 8093 0000 		sts miniDDS+24,r24
 5517               	.LM739:
 5518 1ee4 2091 0000 		lds r18,miniDDS+30
 5519 1ee8 3091 0000 		lds r19,(miniDDS+30)+1
 5520 1eec 2817      		cp r18,r24
 5521 1eee 3907      		cpc r19,r25
 5522 1ef0 00F4      		brsh .L506
 5523               	.LM740:
 5524 1ef2 3093 0000 		sts (miniDDS+24)+1,r19
 5525 1ef6 2093 0000 		sts miniDDS+24,r18
 5526               	.L506:
 5527               	.LM741:
 5528 1efa 0E94 0000 		call ShowPW
 5529 1efe 00C0      		rjmp .L503
 5530               	.L516:
 5531               	.LM742:
 5532 1f00 2091 0000 		lds r18,miniDDS+26
 5533 1f04 3091 0000 		lds r19,(miniDDS+26)+1
 5534 1f08 4091 0000 		lds r20,miniDDS+42
 5535 1f0c 5091 0000 		lds r21,(miniDDS+42)+1
 5536 1f10 CA01      		movw r24,r20
 5537 1f12 8456      		subi r24,lo8(-(-100))
 5538 1f14 9040      		sbci r25,hi8(-(-100))
 5539 1f16 2817      		cp r18,r24
 5540 1f18 3907      		cpc r19,r25
 5541 1f1a 00F4      		brsh .L507
 5542               	.LM743:
 5543 1f1c 2C59      		subi r18,lo8(-(100))
 5544 1f1e 3F4F      		sbci r19,hi8(-(100))
 5545 1f20 3093 0000 		sts (miniDDS+26)+1,r19
 5546 1f24 2093 0000 		sts miniDDS+26,r18
 5547 1f28 00C0      		rjmp .L508
 5548               	.L507:
 5549               	.LM744:
 5550 1f2a 5093 0000 		sts (miniDDS+26)+1,r21
 5551 1f2e 4093 0000 		sts miniDDS+26,r20
 5552               	.L508:
 5553               	.LM745:
 5554 1f32 0E94 0000 		call ShowServoAmp
 5555               	.L503:
 5556               	.LM746:
 5557 1f36 0E94 0000 		call SaveSetting
 5558               	.L502:
 5559               	.LM747:
 5560 1f3a 8091 0000 		lds r24,SysState
 5561 1f3e 8430      		cpi r24,lo8(4)
 5562 1f40 01F4      		brne .L509
 5563               	.LM748:
 5564 1f42 8091 0000 		lds r24,CurrParam
 5565 1f46 8F5F      		subi r24,lo8(-(1))
 5566 1f48 8093 0000 		sts CurrParam,r24
 5567               	.LM749:
 5568 1f4c 8930      		cpi r24,lo8(9)
 5569 1f4e 00F0      		brlo .L510
 5570               	.LM750:
 5571 1f50 88E0      		ldi r24,lo8(8)
 5572 1f52 8093 0000 		sts CurrParam,r24
 5573               	.L510:
 5574               	.LM751:
 5575 1f56 0E94 0000 		call ShowSVParam
 5576               	.L509:
 5577               	.LM752:
 5578 1f5a 8091 0000 		lds r24,SysState
 5579 1f5e 8530      		cpi r24,lo8(5)
 5580 1f60 01F4      		brne .L513
 5581               	.LM753:
 5582 1f62 8091 0000 		lds r24,CurrMode
 5583 1f66 8F5F      		subi r24,lo8(-(1))
 5584 1f68 8093 0000 		sts CurrMode,r24
 5585               	.LM754:
 5586 1f6c 8430      		cpi r24,lo8(4)
 5587 1f6e 00F0      		brlo .L512
 5588               	.LM755:
 5589 1f70 83E0      		ldi r24,lo8(3)
 5590 1f72 8093 0000 		sts CurrMode,r24
 5591               	.L512:
 5592               	.LM756:
 5593 1f76 0E94 0000 		call ShowMode
 5594               	.L513:
 5595 1f7a 0895      		ret
 5596               	.LFE39:
 5598               	.global	SetSweepAmp
 5600               	SetSweepAmp:
 5601               	.LFB21:
 5602               	.LM757:
 5603               	/* prologue: function */
 5604               	/* frame size = 0 */
 5605               	.LM758:
 5606 1f7c 8091 0000 		lds r24,CurrFocus
 5607 1f80 8A30      		cpi r24,lo8(10)
 5608 1f82 01F0      		breq .L518
 5609               	.LM759:
 5610 1f84 8AE0      		ldi r24,lo8(10)
 5611 1f86 8093 0000 		sts CurrFocus,r24
 5612               	.LM760:
 5613 1f8a 0E94 0000 		call ShowSweep
 5614 1f8e 0895      		ret
 5615               	.L518:
 5616               	.LM761:
 5617 1f90 86E1      		ldi r24,lo8(22)
 5618 1f92 66E0      		ldi r22,lo8(6)
 5619 1f94 41E0      		ldi r20,lo8(1)
 5620 1f96 20E0      		ldi r18,lo8(gs(AmpInputHandle))
 5621 1f98 30E0      		ldi r19,hi8(gs(AmpInputHandle))
 5622 1f9a 0E94 0000 		call NumInputSetup
 5623               	.LM762:
 5624 1f9e 0E94 0000 		call DisplayInputBuf
 5625 1fa2 0895      		ret
 5626               	.LFE21:
 5628               	.global	QuickSweepParam
 5630               	QuickSweepParam:
 5631               	.LFB20:
 5632               	.LM763:
 5633               	/* prologue: function */
 5634               	/* frame size = 0 */
 5635               	.LM764:
 5636 1fa4 E091 0000 		lds r30,CurrFocus
 5637 1fa8 4091 0000 		lds r20,KeyParam
 5638 1fac 2E2F      		mov r18,r30
 5639 1fae 30E0      		ldi r19,lo8(0)
 5640 1fb0 2550      		subi r18,lo8(-(-5))
 5641 1fb2 3040      		sbci r19,hi8(-(-5))
 5642 1fb4 842F      		mov r24,r20
 5643 1fb6 90E0      		ldi r25,lo8(0)
 5644 1fb8 8F70      		andi r24,lo8(15)
 5645 1fba 9070      		andi r25,hi8(15)
 5646 1fbc 2817      		cp r18,r24
 5647 1fbe 3907      		cpc r19,r25
 5648 1fc0 01F0      		breq .L522
 5649               	.LM765:
 5650 1fc2 4F70      		andi r20,lo8(15)
 5651 1fc4 4B5F      		subi r20,lo8(-(5))
 5652 1fc6 4093 0000 		sts CurrFocus,r20
 5653               	.LM766:
 5654 1fca 0E94 0000 		call ShowSweep
 5655 1fce 0895      		ret
 5656               	.L522:
 5657               	.LM767:
 5658 1fd0 87E0      		ldi r24,lo8(7)
 5659 1fd2 E89F      		mul r30,r24
 5660 1fd4 9001      		movw r18,r0
 5661 1fd6 1124      		clr r1
 5662               	.LVL318:
 5663 1fd8 2050      		subi r18,lo8(-(SweepParams-42))
 5664 1fda 3040      		sbci r19,hi8(-(SweepParams-42))
 5665 1fdc 80E1      		ldi r24,lo8(16)
 5666               	.LVL319:
 5667 1fde 00C0      		rjmp .L524
 5668               	.LVL320:
 5669               	.L525:
 5670               	.LBB274:
 5671               	.LBB275:
 5672               	.LM768:
 5673 1fe0 E82F      		mov r30,r24
 5674               	.LVL321:
 5675 1fe2 F0E0      		ldi r31,lo8(0)
 5676 1fe4 E050      		subi r30,lo8(-(DispBuf))
 5677 1fe6 F040      		sbci r31,hi8(-(DispBuf))
 5678 1fe8 9083      		st Z,r25
 5679 1fea 8F5F      		subi r24,lo8(-(1))
 5680               	.L524:
 5681 1fec F901      		movw r30,r18
 5682               	.LVL322:
 5683               	.LBB276:
 5684               	.LM769:
 5685 1fee 2F5F      		subi r18,lo8(-(1))
 5686 1ff0 3F4F      		sbci r19,hi8(-(1))
 5687               	/* #APP */
 5688               	 ;  2641 "FuncGen.c" 1
 5689 1ff2 9491      		lpm r25, Z
 5690               		
 5691               	 ;  0 "" 2
 5692               	/* #NOAPP */
 5693               	.LBE276:
 5694 1ff4 9923      		tst r25
 5695 1ff6 01F4      		brne .L525
 5696               	.LBE275:
 5697               	.LBE274:
 5698               	.LM770:
 5699 1ff8 87E1      		ldi r24,lo8(23)
 5700               	.LVL323:
 5701 1ffa 69E0      		ldi r22,lo8(9)
 5702 1ffc 41E0      		ldi r20,lo8(1)
 5703 1ffe 20E0      		ldi r18,lo8(gs(SweepParamInputHandle))
 5704 2000 30E0      		ldi r19,hi8(gs(SweepParamInputHandle))
 5705               	.LVL324:
 5706 2002 0E94 0000 		call NumInputSetup
 5707               	.LVL325:
 5708               	.LM771:
 5709 2006 0E94 0000 		call DisplayInputBuf
 5710 200a 0895      		ret
 5711               	.LFE20:
 5713               	.global	SetSweepParam
 5715               	SetSweepParam:
 5716               	.LFB19:
 5717               	.LM772:
 5718               	/* prologue: function */
 5719               	/* frame size = 0 */
 5720               	.LM773:
 5721 200c E091 0000 		lds r30,CurrFocus
 5722 2010 8E2F      		mov r24,r30
 5723 2012 8650      		subi r24,lo8(-(-6))
 5724 2014 8430      		cpi r24,lo8(4)
 5725 2016 00F0      		brlo .L528
 5726               	.LM774:
 5727 2018 86E0      		ldi r24,lo8(6)
 5728 201a 8093 0000 		sts CurrFocus,r24
 5729               	.LM775:
 5730 201e 0E94 0000 		call ShowSweep
 5731 2022 0895      		ret
 5732               	.L528:
 5733               	.LM776:
 5734 2024 87E0      		ldi r24,lo8(7)
 5735 2026 E89F      		mul r30,r24
 5736 2028 C001      		movw r24,r0
 5737 202a 1124      		clr r1
 5738               	.LVL326:
 5739 202c 8050      		subi r24,lo8(-(SweepParams-42))
 5740 202e 9040      		sbci r25,hi8(-(SweepParams-42))
 5741 2030 20E1      		ldi r18,lo8(16)
 5742               	.LVL327:
 5743 2032 00C0      		rjmp .L530
 5744               	.LVL328:
 5745               	.L531:
 5746               	.LBB277:
 5747               	.LBB278:
 5748               	.LM777:
 5749 2034 E22F      		mov r30,r18
 5750               	.LVL329:
 5751 2036 F0E0      		ldi r31,lo8(0)
 5752 2038 E050      		subi r30,lo8(-(DispBuf))
 5753 203a F040      		sbci r31,hi8(-(DispBuf))
 5754 203c 3083      		st Z,r19
 5755 203e 2F5F      		subi r18,lo8(-(1))
 5756               	.L530:
 5757 2040 FC01      		movw r30,r24
 5758               	.LVL330:
 5759               	.LBB279:
 5760               	.LM778:
 5761 2042 0196      		adiw r24,1
 5762               	/* #APP */
 5763               	 ;  2641 "FuncGen.c" 1
 5764 2044 3491      		lpm r19, Z
 5765               		
 5766               	 ;  0 "" 2
 5767               	/* #NOAPP */
 5768               	.LBE279:
 5769 2046 3323      		tst r19
 5770 2048 01F4      		brne .L531
 5771               	.LBE278:
 5772               	.LBE277:
 5773               	.LM779:
 5774 204a 87E1      		ldi r24,lo8(23)
 5775               	.LVL331:
 5776 204c 69E0      		ldi r22,lo8(9)
 5777 204e 41E0      		ldi r20,lo8(1)
 5778 2050 20E0      		ldi r18,lo8(gs(SweepParamInputHandle))
 5779 2052 30E0      		ldi r19,hi8(gs(SweepParamInputHandle))
 5780               	.LVL332:
 5781 2054 0E94 0000 		call NumInputSetup
 5782               	.LVL333:
 5783               	.LM780:
 5784 2058 0E94 0000 		call DisplayInputBuf
 5785 205c 0895      		ret
 5786               	.LFE19:
 5788               	.global	FreqKey
 5790               	FreqKey:
 5791               	.LFB17:
 5792               	.LM781:
 5793               	/* prologue: function */
 5794               	/* frame size = 0 */
 5795               	.LM782:
 5796 205e 8091 0000 		lds r24,miniDDS
 5797 2062 8823      		tst r24
 5798 2064 01F4      		brne .L534
 5799 2066 8091 0000 		lds r24,NumInput+13
 5800 206a 9091 0000 		lds r25,(NumInput+13)+1
 5801 206e 8050      		subi r24,lo8(gs(FreqInputHandle))
 5802 2070 9040      		sbci r25,hi8(gs(FreqInputHandle))
 5803 2072 01F4      		brne .L534
 5804               	.LM783:
 5805 2074 0E94 0000 		call SetFreqCW
 5806               	.L534:
 5807               	.LM784:
 5808 2078 8091 0000 		lds r24,miniDDS
 5809 207c 8130      		cpi r24,lo8(1)
 5810 207e 01F4      		brne .L537
 5811               	.LM785:
 5812 2080 8091 0000 		lds r24,CurrFocus
 5813 2084 8F5F      		subi r24,lo8(-(1))
 5814 2086 8093 0000 		sts CurrFocus,r24
 5815               	.LM786:
 5816 208a 8930      		cpi r24,lo8(9)
 5817 208c 00F0      		brlo .L536
 5818               	.LM787:
 5819 208e 86E0      		ldi r24,lo8(6)
 5820 2090 8093 0000 		sts CurrFocus,r24
 5821               	.L536:
 5822               	.LM788:
 5823 2094 0E94 0000 		call SetSweepParam
 5824               	.L537:
 5825 2098 0895      		ret
 5826               	.LFE17:
 5828               	.global	SweepInit
 5830               	SweepInit:
 5831               	.LFB6:
 5832               	.LM789:
 5833               	/* prologue: function */
 5834               	/* frame size = 0 */
 5835               	.LM790:
 5836 209a 81E0      		ldi r24,lo8(1)
 5837 209c 8093 0000 		sts SysState,r24
 5838               	.LM791:
 5839 20a0 8093 0000 		sts CurrMode,r24
 5840               	.LM792:
 5841 20a4 86E0      		ldi r24,lo8(6)
 5842 20a6 8093 0000 		sts CurrFocus,r24
 5843               	.LM793:
 5844 20aa 8EE3      		ldi r24,lo8(62)
 5845 20ac 8093 0000 		sts TrigCtrl,r24
 5846 20b0 80E0      		ldi r24,lo8(0)
 5847 20b2 90E0      		ldi r25,hi8(0)
 5848               	.LBB280:
 5849               	.LBB281:
 5850               	.LBB282:
 5851               	.LBB283:
 5852               	.LM794:
 5853 20b4 20E2      		ldi r18,lo8(32)
 5854               	.L539:
 5855 20b6 FC01      		movw r30,r24
 5856 20b8 E050      		subi r30,lo8(-(DispBuf))
 5857 20ba F040      		sbci r31,hi8(-(DispBuf))
 5858 20bc 2083      		st Z,r18
 5859 20be 0196      		adiw r24,1
 5860               	.LM795:
 5861 20c0 8032      		cpi r24,32
 5862 20c2 9105      		cpc r25,__zero_reg__
 5863 20c4 01F4      		brne .L539
 5864               	.LBE283:
 5865               	.LBE282:
 5866               	.LBE281:
 5867               	.LBE280:
 5868               	.LM796:
 5869 20c6 0E94 0000 		call ShowSweep
 5870               	/* epilogue start */
 5871               	.LM797:
 5872 20ca 0895      		ret
 5873               	.LFE6:
 5875               	.global	ServoRunInit
 5877               	ServoRunInit:
 5878               	.LFB8:
 5879               	.LM798:
 5880               	/* prologue: function */
 5881               	/* frame size = 0 */
 5882               	.LM799:
 5883 20cc 83E0      		ldi r24,lo8(3)
 5884 20ce 8093 0000 		sts SysState,r24
 5885               	.LM800:
 5886 20d2 8093 0000 		sts CurrMode,r24
 5887               	.LM801:
 5888 20d6 1092 0000 		sts CurrFocus,__zero_reg__
 5889               	.LM802:
 5890 20da 6091 0000 		lds r22,miniDDS+26
 5891 20de 7091 0000 		lds r23,(miniDDS+26)+1
 5892 20e2 80E0      		ldi r24,lo8(0)
 5893 20e4 90E0      		ldi r25,hi8(0)
 5894 20e6 24E6      		ldi r18,lo8(100)
 5895 20e8 30E0      		ldi r19,hi8(100)
 5896 20ea 40E0      		ldi r20,hlo8(100)
 5897 20ec 50E0      		ldi r21,hhi8(100)
 5898 20ee 0E94 0000 		call __mulsi3
 5899 20f2 20E1      		ldi r18,lo8(10000)
 5900 20f4 37E2      		ldi r19,hi8(10000)
 5901 20f6 40E0      		ldi r20,hlo8(10000)
 5902 20f8 50E0      		ldi r21,hhi8(10000)
 5903 20fa 0E94 0000 		call __udivmodsi4
 5904 20fe 822F      		mov r24,r18
 5905 2100 0E94 0000 		call SetDigitalPot
 5906               	.LM803:
 5907 2104 6091 0000 		lds r22,miniDDS+26
 5908 2108 7091 0000 		lds r23,(miniDDS+26)+1
 5909 210c 7695      		lsr r23
 5910 210e 6795      		ror r22
 5911 2110 80E0      		ldi r24,lo8(0)
 5912 2112 90E0      		ldi r25,hi8(0)
 5913 2114 6857      		subi r22,lo8(-(5000))
 5914 2116 7C4E      		sbci r23,hi8(-(5000))
 5915 2118 8F4F      		sbci r24,hlo8(-(5000))
 5916 211a 9F4F      		sbci r25,hhi8(-(5000))
 5917 211c 0E94 0000 		call UpdateOfs
 5918               	.LM804:
 5919 2120 0E94 0000 		call ShowServoRun
 5920               	/* epilogue start */
 5921               	.LM805:
 5922 2124 0895      		ret
 5923               	.LFE8:
 5925               	.global	ServoPosInit
 5927               	ServoPosInit:
 5928               	.LFB7:
 5929               	.LM806:
 5930               	/* prologue: function */
 5931               	/* frame size = 0 */
 5932               	.LM807:
 5933 2126 82E0      		ldi r24,lo8(2)
 5934 2128 8093 0000 		sts SysState,r24
 5935               	.LM808:
 5936 212c 8093 0000 		sts CurrMode,r24
 5937               	.LM809:
 5938 2130 83E0      		ldi r24,lo8(3)
 5939 2132 8093 0000 		sts CurrFocus,r24
 5940               	.LM810:
 5941 2136 6091 0000 		lds r22,miniDDS+26
 5942 213a 7091 0000 		lds r23,(miniDDS+26)+1
 5943 213e 80E0      		ldi r24,lo8(0)
 5944 2140 90E0      		ldi r25,hi8(0)
 5945 2142 24E6      		ldi r18,lo8(100)
 5946 2144 30E0      		ldi r19,hi8(100)
 5947 2146 40E0      		ldi r20,hlo8(100)
 5948 2148 50E0      		ldi r21,hhi8(100)
 5949 214a 0E94 0000 		call __mulsi3
 5950 214e 20E1      		ldi r18,lo8(10000)
 5951 2150 37E2      		ldi r19,hi8(10000)
 5952 2152 40E0      		ldi r20,hlo8(10000)
 5953 2154 50E0      		ldi r21,hhi8(10000)
 5954 2156 0E94 0000 		call __udivmodsi4
 5955 215a 822F      		mov r24,r18
 5956 215c 0E94 0000 		call SetDigitalPot
 5957               	.LM811:
 5958 2160 6091 0000 		lds r22,miniDDS+26
 5959 2164 7091 0000 		lds r23,(miniDDS+26)+1
 5960 2168 7695      		lsr r23
 5961 216a 6795      		ror r22
 5962 216c 80E0      		ldi r24,lo8(0)
 5963 216e 90E0      		ldi r25,hi8(0)
 5964 2170 6857      		subi r22,lo8(-(5000))
 5965 2172 7C4E      		sbci r23,hi8(-(5000))
 5966 2174 8F4F      		sbci r24,hlo8(-(5000))
 5967 2176 9F4F      		sbci r25,hhi8(-(5000))
 5968 2178 0E94 0000 		call UpdateOfs
 5969               	.LM812:
 5970 217c 0E94 0000 		call ShowPW
 5971               	/* epilogue start */
 5972               	.LM813:
 5973 2180 0895      		ret
 5974               	.LFE7:
 5976               	.global	TYPE
 5978               	TYPE:
 5979               	.LFB33:
 5980               	.LM814:
 5981               	/* prologue: function */
 5982               	/* frame size = 0 */
 5983               	.LM815:
 5984 2182 8091 0000 		lds r24,miniDDS+15
 5985 2186 8F5F      		subi r24,lo8(-(1))
 5986 2188 8093 0000 		sts miniDDS+15,r24
 5987               	.LM816:
 5988 218c 8830      		cpi r24,lo8(8)
 5989 218e 00F0      		brlo .L547
 5990               	.LM817:
 5991 2190 1092 0000 		sts miniDDS+15,__zero_reg__
 5992               	.L547:
 5993               	.LM818:
 5994 2194 80E0      		ldi r24,lo8(miniDDS_EE+15)
 5995 2196 90E0      		ldi r25,hi8(miniDDS_EE+15)
 5996 2198 6091 0000 		lds r22,miniDDS+15
 5997 219c 0E94 0000 		call EE_Write
 5998               	.LM819:
 5999 21a0 0E94 0000 		call ShowType
 6000               	.LM820:
 6001 21a4 80E0      		ldi r24,lo8(0)
 6002 21a6 0E94 0000 		call UpdateLCD
 6003               	.LM821:
 6004 21aa 8091 0000 		lds r24,miniDDS+15
 6005 21ae 8730      		cpi r24,lo8(7)
 6006 21b0 01F4      		brne .L548
 6007               	.LM822:
 6008 21b2 0E94 0000 		call LoadUserWaveform
 6009               	.L548:
 6010               	.LM823:
 6011 21b6 8091 0000 		lds r24,miniDDS
 6012 21ba 8823      		tst r24
 6013 21bc 01F4      		brne .L549
 6014               	.LM824:
 6015 21be 0E94 0000 		call SendDDS
 6016               	.L549:
 6017               	.LM825:
 6018 21c2 8091 0000 		lds r24,miniDDS
 6019 21c6 8130      		cpi r24,lo8(1)
 6020 21c8 01F4      		brne .L551
 6021               	.LM826:
 6022 21ca 0E94 0000 		call SendSweep
 6023               	.L551:
 6024 21ce 0895      		ret
 6025               	.LFE33:
 6027               	.global	CAN
 6029               	CAN:
 6030               	.LFB31:
 6031               	.LM827:
 6032               	/* prologue: function */
 6033               	/* frame size = 0 */
 6034               	.LM828:
 6035 21d0 8091 0000 		lds r24,NumInput+4
 6036 21d4 8823      		tst r24
 6037 21d6 01F0      		breq .L553
 6038               	.LM829:
 6039 21d8 8150      		subi r24,lo8(-(-1))
 6040 21da 8093 0000 		sts NumInput+4,r24
 6041               	.LM830:
 6042 21de 9091 0000 		lds r25,NumInput+3
 6043               	.LVL334:
 6044 21e2 00C0      		rjmp .L558
 6045               	.L555:
 6046               	.LM831:
 6047 21e4 E091 0000 		lds r30,NumInput
 6048 21e8 F091 0000 		lds r31,(NumInput)+1
 6049 21ec E90F      		add r30,r25
 6050 21ee F11D      		adc r31,__zero_reg__
 6051 21f0 8081      		ld r24,Z
 6052 21f2 8183      		std Z+1,r24
 6053               	.L558:
 6054               	.LM832:
 6055 21f4 9150      		subi r25,lo8(-(-1))
 6056               	.LM833:
 6057 21f6 01F4      		brne .L555
 6058               	.LM834:
 6059 21f8 E091 0000 		lds r30,NumInput
 6060 21fc F091 0000 		lds r31,(NumInput)+1
 6061 2200 8FE5      		ldi r24,lo8(95)
 6062 2202 8083      		st Z,r24
 6063               	.LM835:
 6064 2204 0E94 0000 		call DisplayInputBuf
 6065               	.LVL335:
 6066 2208 0895      		ret
 6067               	.L553:
 6068               	.LM836:
 6069 220a 0E94 0000 		call PutStr_ROM_coded
 6070               	.LM837:
 6071 220e 8DE0      		ldi r24,lo8(13)
 6072 2210 8093 0000 		sts NumInput+11,r24
 6073               	.LM838:
 6074 2214 8091 0000 		lds r24,NumInput+12
 6075 2218 8093 0000 		sts SysState,r24
 6076               	.LM839:
 6077 221c E091 0000 		lds r30,NumInput+13
 6078 2220 F091 0000 		lds r31,(NumInput+13)+1
 6079 2224 0995      		icall
 6080 2226 0895      		ret
 6081               	.LFE31:
 6083               	.global	StartStop
 6085               	StartStop:
 6086               	.LFB30:
 6087               	.LM840:
 6088               	/* prologue: function */
 6089               	/* frame size = 0 */
 6090               	.LM841:
 6091 2228 8091 0000 		lds r24,CurrFocus
 6092 222c 8130      		cpi r24,lo8(1)
 6093 222e 01F4      		brne .L560
 6094               	.LM842:
 6095 2230 82E0      		ldi r24,lo8(2)
 6096 2232 00C0      		rjmp .L563
 6097               	.L560:
 6098               	.LM843:
 6099 2234 81E0      		ldi r24,lo8(1)
 6100               	.L563:
 6101 2236 8093 0000 		sts CurrFocus,r24
 6102               	.LM844:
 6103 223a 0E94 0000 		call PutStr_ROM_coded
 6104               	.LM845:
 6105 223e 0E94 0000 		call ShowServoRun
 6106               	/* epilogue start */
 6107               	.LM846:
 6108 2242 0895      		ret
 6109               	.LFE30:
 6111               	.global	SetSVAmp
 6113               	SetSVAmp:
 6114               	.LFB26:
 6115               	.LM847:
 6116               	/* prologue: function */
 6117               	/* frame size = 0 */
 6118               	.LM848:
 6119 2244 8091 0000 		lds r24,CurrFocus
 6120 2248 8430      		cpi r24,lo8(4)
 6121 224a 01F0      		breq .L565
 6122               	.LM849:
 6123 224c 84E0      		ldi r24,lo8(4)
 6124 224e 8093 0000 		sts CurrFocus,r24
 6125               	.LM850:
 6126 2252 0E94 0000 		call ShowServoAmp
 6127 2256 0895      		ret
 6128               	.L565:
 6129               	.LM851:
 6130 2258 85E1      		ldi r24,lo8(21)
 6131 225a 65E0      		ldi r22,lo8(5)
 6132 225c 42E0      		ldi r20,lo8(2)
 6133 225e 20E0      		ldi r18,lo8(gs(ServoAmpInputHandle))
 6134 2260 30E0      		ldi r19,hi8(gs(ServoAmpInputHandle))
 6135 2262 0E94 0000 		call NumInputSetup
 6136               	.LM852:
 6137 2266 0E94 0000 		call PutStr_ROM_coded
 6138               	.LM853:
 6139 226a 0E94 0000 		call DisplayInputBuf
 6140 226e 0895      		ret
 6141               	.LFE26:
 6143               	.global	SetSweepOfs
 6145               	SetSweepOfs:
 6146               	.LFB22:
 6147               	.LM854:
 6148               	/* prologue: function */
 6149               	/* frame size = 0 */
 6150               	.LM855:
 6151 2270 8091 0000 		lds r24,CurrFocus
 6152 2274 8B30      		cpi r24,lo8(11)
 6153 2276 01F0      		breq .L569
 6154               	.LM856:
 6155 2278 8BE0      		ldi r24,lo8(11)
 6156 227a 8093 0000 		sts CurrFocus,r24
 6157               	.LM857:
 6158 227e 0E94 0000 		call ShowSweep
 6159 2282 0895      		ret
 6160               	.L569:
 6161               	.LM858:
 6162 2284 86E1      		ldi r24,lo8(22)
 6163 2286 66E0      		ldi r22,lo8(6)
 6164 2288 41E0      		ldi r20,lo8(1)
 6165 228a 20E0      		ldi r18,lo8(gs(OfsInputHandle))
 6166 228c 30E0      		ldi r19,hi8(gs(OfsInputHandle))
 6167 228e 0E94 0000 		call NumInputSetup
 6168               	.LM859:
 6169 2292 0E94 0000 		call PutStr_ROM_coded
 6170               	.LM860:
 6171 2296 0E94 0000 		call DisplayInputBuf
 6172 229a 0895      		ret
 6173               	.LFE22:
 6175               	.global	SelectMode
 6177               	SelectMode:
 6178               	.LFB14:
 6179               	.LM861:
 6180               	/* prologue: function */
 6181               	/* frame size = 0 */
 6182               	.LM862:
 6183 229c 8091 0000 		lds r24,CurrMode
 6184 22a0 8093 0000 		sts miniDDS,r24
 6185               	.LM863:
 6186 22a4 0E94 0000 		call SaveSetting
 6187               	.LM864:
 6188 22a8 0E94 0000 		call PutStr_ROM_coded
 6189               	.LBB284:
 6190               	.LM865:
 6191 22ac 8091 0000 		lds r24,miniDDS
 6192 22b0 90E0      		ldi r25,lo8(0)
 6193               	.LVL336:
 6194 22b2 880F      		lsl r24
 6195 22b4 991F      		rol r25
 6196               	.LVL337:
 6197 22b6 8050      		subi r24,lo8(-(InitFuncTab))
 6198 22b8 9040      		sbci r25,hi8(-(InitFuncTab))
 6199 22ba FC01      		movw r30,r24
 6200               	/* #APP */
 6201               	 ;  633 "FuncGen.c" 1
 6202 22bc 2591      		lpm r18, Z+
 6203 22be 3491      		lpm r19, Z
 6204               		
 6205               	 ;  0 "" 2
 6206               	.LVL338:
 6207               	/* #NOAPP */
 6208               	.LBE284:
 6209 22c0 F901      		movw r30,r18
 6210 22c2 0995      		icall
 6211               	.LVL339:
 6212               	/* epilogue start */
 6213               	.LM866:
 6214 22c4 0895      		ret
 6215               	.LFE14:
 6217               	.global	SetSVParam
 6219               	SetSVParam:
 6220               	.LFB10:
 6221               	.LM867:
 6222               	/* prologue: function */
 6223               	/* frame size = 0 */
 6224               	.LM868:
 6225 22c6 81E1      		ldi r24,lo8(17)
 6226 22c8 65E0      		ldi r22,lo8(5)
 6227 22ca 44E0      		ldi r20,lo8(4)
 6228 22cc 20E0      		ldi r18,lo8(gs(ServoParamInputHandle))
 6229 22ce 30E0      		ldi r19,hi8(gs(ServoParamInputHandle))
 6230 22d0 0E94 0000 		call NumInputSetup
 6231               	.LM869:
 6232 22d4 0E94 0000 		call PutStr_ROM_coded
 6233               	.LM870:
 6234 22d8 0E94 0000 		call DisplayInputBuf
 6235               	/* epilogue start */
 6236               	.LM871:
 6237 22dc 0895      		ret
 6238               	.LFE10:
 6240               	.global	ChangeSVParam
 6242               	ChangeSVParam:
 6243               	.LFB9:
 6244               	.LM872:
 6245               	/* prologue: function */
 6246               	/* frame size = 0 */
 6247               	.LM873:
 6248 22de 0E94 0000 		call PutStr_ROM_coded
 6249               	.LM874:
 6250 22e2 1092 0000 		sts CurrParam,__zero_reg__
 6251               	.LM875:
 6252 22e6 0E94 0000 		call ShowSVParam
 6253               	/* epilogue start */
 6254               	.LM876:
 6255 22ea 0895      		ret
 6256               	.LFE9:
 6258               	.global	SVParamDefault
 6260               	SVParamDefault:
 6261               	.LFB11:
 6262               	.LM877:
 6263               	/* prologue: function */
 6264               	/* frame size = 0 */
 6265               	.LM878:
 6266 22ec 8091 0000 		lds r24,CurrParam
 6267 22f0 8830      		cpi r24,lo8(8)
 6268 22f2 01F4      		brne .L581
 6269               	.LM879:
 6270 22f4 84E1      		ldi r24,lo8(20)
 6271 22f6 0E94 0000 		call u0putc
 6272 22fa 20E0      		ldi r18,lo8(miniDDS_ROM+24)
 6273 22fc 30E0      		ldi r19,hi8(miniDDS_ROM+24)
 6274 22fe A0E0      		ldi r26,lo8(miniDDS+24)
 6275 2300 B0E0      		ldi r27,hi8(miniDDS+24)
 6276               	.L580:
 6277               	.LBB285:
 6278               	.LM880:
 6279 2302 F901      		movw r30,r18
 6280               	/* #APP */
 6281               	 ;  604 "FuncGen.c" 1
 6282 2304 8491      		lpm r24, Z
 6283               		
 6284               	 ;  0 "" 2
 6285               	.LVL340:
 6286               	/* #NOAPP */
 6287               	.LBE285:
 6288               	.LM881:
 6289 2306 8D93      		st X+,r24
 6290 2308 2F5F      		subi r18,lo8(-(1))
 6291 230a 3F4F      		sbci r19,hi8(-(1))
 6292               	.LM882:
 6293 230c F0E0      		ldi r31,hi8(miniDDS+44)
 6294 230e A030      		cpi r26,lo8(miniDDS+44)
 6295 2310 BF07      		cpc r27,r31
 6296 2312 01F4      		brne .L580
 6297               	.LM883:
 6298 2314 0E94 0000 		call SaveSetting
 6299               	.LVL341:
 6300               	.LM884:
 6301 2318 0E94 0000 		call ServoPosInit
 6302               	.L581:
 6303 231c 0895      		ret
 6304               	.LFE11:
 6306               	.global	KS_CW_Tab
 6307               		.section	.progmem.data,"a",@progbits
 6310               	KS_CW_Tab:
 6311 0000 12        		.byte	18
 6312 0001 00        		.byte	0
 6313 0002 0000      		.word	gs(SetFreqCW)
 6314 0004 14        		.byte	20
 6315 0005 00        		.byte	0
 6316 0006 0000      		.word	gs(SetOfs)
 6317 0008 13        		.byte	19
 6318 0009 00        		.byte	0
 6319 000a 0000      		.word	gs(SetAmp)
 6320 000c 0E        		.byte	14
 6321 000d 00        		.byte	0
 6322 000e 0000      		.word	gs(TYPE)
 6323 0010 16        		.byte	22
 6324 0011 00        		.byte	0
 6325 0012 0000      		.word	gs(Inc)
 6326 0014 17        		.byte	23
 6327 0015 00        		.byte	0
 6328 0016 0000      		.word	gs(Dec)
 6329 0018 15        		.byte	21
 6330 0019 00        		.byte	0
 6331 001a 0000      		.word	gs(ToggleTrigCtrl)
 6332 001c 18        		.byte	24
 6333 001d 07        		.byte	7
 6334 001e 0000      		.word	gs(DiagDisplay)
 6335 0020 11        		.byte	17
 6336 0021 05        		.byte	5
 6337 0022 0000      		.word	gs(ChangeMode)
 6338 0024 0A        		.byte	10
 6339 0025 06        		.byte	6
 6340 0026 0000      		.word	gs(SetIncrement)
 6341 0028 01        		.byte	1
 6342 0029 06        		.byte	6
 6343 002a 0000      		.word	gs(SetIncrement)
 6344 002c 02        		.byte	2
 6345 002d 06        		.byte	6
 6346 002e 0000      		.word	gs(SetIncrement)
 6347 0030 03        		.byte	3
 6348 0031 06        		.byte	6
 6349 0032 0000      		.word	gs(SetIncrement)
 6350 0034 04        		.byte	4
 6351 0035 06        		.byte	6
 6352 0036 0000      		.word	gs(SetIncrement)
 6353 0038 05        		.byte	5
 6354 0039 06        		.byte	6
 6355 003a 0000      		.word	gs(SetIncrement)
 6356 003c 06        		.byte	6
 6357 003d 06        		.byte	6
 6358 003e 0000      		.word	gs(SetIncrement)
 6359 0040 07        		.byte	7
 6360 0041 06        		.byte	6
 6361 0042 0000      		.word	gs(SetIncrement)
 6362 0044 08        		.byte	8
 6363 0045 06        		.byte	6
 6364 0046 0000      		.word	gs(SetIncrement)
 6365 0048 09        		.byte	9
 6366 0049 06        		.byte	6
 6367 004a 0000      		.word	gs(SetIncrement)
 6368 004c 0F        		.byte	15
 6369 004d 0B        		.byte	11
 6370 004e 0000      		.word	gs(ShowStep)
 6371 0050 10        		.byte	16
 6372 0051 0B        		.byte	11
 6373 0052 0000      		.word	gs(ShowStep)
 6374 0054 0C        		.byte	12
 6375 0055 0C        		.byte	12
 6376 0056 0000      		.word	gs(ShowDuty)
 6377 0058 00        		.byte	0
 6378 0059 00        		.byte	0
 6379 005a 0000      		.word	gs(Dummy)
 6380               	.global	KS_Sweep_Tab
 6383               	KS_Sweep_Tab:
 6384 005c 12        		.byte	18
 6385 005d 01        		.byte	1
 6386 005e 0000      		.word	gs(SetSweepParam)
 6387 0060 13        		.byte	19
 6388 0061 01        		.byte	1
 6389 0062 0000      		.word	gs(SetSweepAmp)
 6390 0064 14        		.byte	20
 6391 0065 01        		.byte	1
 6392 0066 0000      		.word	gs(SetSweepOfs)
 6393 0068 01        		.byte	1
 6394 0069 01        		.byte	1
 6395 006a 0000      		.word	gs(QuickSweepParam)
 6396 006c 02        		.byte	2
 6397 006d 01        		.byte	1
 6398 006e 0000      		.word	gs(QuickSweepParam)
 6399 0070 03        		.byte	3
 6400 0071 01        		.byte	1
 6401 0072 0000      		.word	gs(QuickSweepParam)
 6402 0074 04        		.byte	4
 6403 0075 01        		.byte	1
 6404 0076 0000      		.word	gs(QuickSweepParam)
 6405 0078 0E        		.byte	14
 6406 0079 01        		.byte	1
 6407 007a 0000      		.word	gs(TYPE)
 6408 007c 16        		.byte	22
 6409 007d 01        		.byte	1
 6410 007e 0000      		.word	gs(Inc)
 6411 0080 17        		.byte	23
 6412 0081 01        		.byte	1
 6413 0082 0000      		.word	gs(Dec)
 6414 0084 15        		.byte	21
 6415 0085 01        		.byte	1
 6416 0086 0000      		.word	gs(ToggleTrigCtrl)
 6417 0088 11        		.byte	17
 6418 0089 05        		.byte	5
 6419 008a 0000      		.word	gs(ChangeMode)
 6420 008c 0B        		.byte	11
 6421 008d 01        		.byte	1
 6422 008e 0000      		.word	gs(ToggleSweepDir)
 6423 0090 00        		.byte	0
 6424 0091 01        		.byte	1
 6425 0092 0000      		.word	gs(Dummy)
 6426               	.global	KS_ServoPos_Tab
 6429               	KS_ServoPos_Tab:
 6430 0094 12        		.byte	18
 6431 0095 02        		.byte	2
 6432 0096 0000      		.word	gs(SetPW)
 6433 0098 13        		.byte	19
 6434 0099 02        		.byte	2
 6435 009a 0000      		.word	gs(SetSVAmp)
 6436 009c 16        		.byte	22
 6437 009d 02        		.byte	2
 6438 009e 0000      		.word	gs(Inc)
 6439 00a0 17        		.byte	23
 6440 00a1 02        		.byte	2
 6441 00a2 0000      		.word	gs(Dec)
 6442 00a4 15        		.byte	21
 6443 00a5 04        		.byte	4
 6444 00a6 0000      		.word	gs(ChangeSVParam)
 6445 00a8 11        		.byte	17
 6446 00a9 05        		.byte	5
 6447 00aa 0000      		.word	gs(ChangeMode)
 6448 00ac 00        		.byte	0
 6449 00ad 02        		.byte	2
 6450 00ae 0000      		.word	gs(Dummy)
 6451 00b0 0000 0000 		.skip 12,0
 6451      0000 0000 
 6451      0000 0000 
 6452               	.global	KS_ServoRun_Tab
 6455               	KS_ServoRun_Tab:
 6456 00bc 0E        		.byte	14
 6457 00bd 03        		.byte	3
 6458 00be 0000      		.word	gs(StartStop)
 6459 00c0 15        		.byte	21
 6460 00c1 04        		.byte	4
 6461 00c2 0000      		.word	gs(ChangeSVParam)
 6462 00c4 11        		.byte	17
 6463 00c5 05        		.byte	5
 6464 00c6 0000      		.word	gs(ChangeMode)
 6465 00c8 00        		.byte	0
 6466 00c9 03        		.byte	3
 6467 00ca 0000      		.word	gs(Dummy)
 6468               	.global	KS_ServoParam_Tab
 6471               	KS_ServoParam_Tab:
 6472 00cc 12        		.byte	18
 6473 00cd 06        		.byte	6
 6474 00ce 0000      		.word	gs(SetSVParam)
 6475 00d0 16        		.byte	22
 6476 00d1 04        		.byte	4
 6477 00d2 0000      		.word	gs(Inc)
 6478 00d4 17        		.byte	23
 6479 00d5 04        		.byte	4
 6480 00d6 0000      		.word	gs(Dec)
 6481 00d8 0E        		.byte	14
 6482 00d9 04        		.byte	4
 6483 00da 0000      		.word	gs(SVParamDefault)
 6484 00dc 0D        		.byte	13
 6485 00dd 02        		.byte	2
 6486 00de 0000      		.word	gs(ExitSVParam)
 6487 00e0 15        		.byte	21
 6488 00e1 02        		.byte	2
 6489 00e2 0000      		.word	gs(ExitSVParam)
 6490 00e4 00        		.byte	0
 6491 00e5 04        		.byte	4
 6492 00e6 0000      		.word	gs(Dummy)
 6493               	.global	KS_ModeSel_Tab
 6496               	KS_ModeSel_Tab:
 6497 00e8 11        		.byte	17
 6498 00e9 05        		.byte	5
 6499 00ea 0000      		.word	gs(SelectMode)
 6500 00ec 16        		.byte	22
 6501 00ed 05        		.byte	5
 6502 00ee 0000      		.word	gs(Inc)
 6503 00f0 17        		.byte	23
 6504 00f1 05        		.byte	5
 6505 00f2 0000      		.word	gs(Dec)
 6506 00f4 0D        		.byte	13
 6507 00f5 05        		.byte	5
 6508 00f6 0000      		.word	gs(EscapeMode)
 6509 00f8 00        		.byte	0
 6510 00f9 05        		.byte	5
 6511 00fa 0000      		.word	gs(Dummy)
 6512               	.global	KS_DigitInput_Tab
 6515               	KS_DigitInput_Tab:
 6516 00fc 12        		.byte	18
 6517 00fd 06        		.byte	6
 6518 00fe 0000      		.word	gs(FreqKey)
 6519 0100 0A        		.byte	10
 6520 0101 06        		.byte	6
 6521 0102 0000      		.word	gs(Digit)
 6522 0104 01        		.byte	1
 6523 0105 06        		.byte	6
 6524 0106 0000      		.word	gs(Digit)
 6525 0108 02        		.byte	2
 6526 0109 06        		.byte	6
 6527 010a 0000      		.word	gs(Digit)
 6528 010c 03        		.byte	3
 6529 010d 06        		.byte	6
 6530 010e 0000      		.word	gs(Digit)
 6531 0110 04        		.byte	4
 6532 0111 06        		.byte	6
 6533 0112 0000      		.word	gs(Digit)
 6534 0114 05        		.byte	5
 6535 0115 06        		.byte	6
 6536 0116 0000      		.word	gs(Digit)
 6537 0118 06        		.byte	6
 6538 0119 06        		.byte	6
 6539 011a 0000      		.word	gs(Digit)
 6540 011c 07        		.byte	7
 6541 011d 06        		.byte	6
 6542 011e 0000      		.word	gs(Digit)
 6543 0120 08        		.byte	8
 6544 0121 06        		.byte	6
 6545 0122 0000      		.word	gs(Digit)
 6546 0124 09        		.byte	9
 6547 0125 06        		.byte	6
 6548 0126 0000      		.word	gs(Digit)
 6549 0128 0C        		.byte	12
 6550 0129 06        		.byte	6
 6551 012a 0000      		.word	gs(Digit)
 6552 012c 0B        		.byte	11
 6553 012d 06        		.byte	6
 6554 012e 0000      		.word	gs(ToggleSign)
 6555 0130 0D        		.byte	13
 6556 0131 06        		.byte	6
 6557 0132 0000      		.word	gs(CAN)
 6558 0134 0F        		.byte	15
 6559 0135 06        		.byte	6
 6560 0136 0000      		.word	gs(UnitButton)
 6561 0138 10        		.byte	16
 6562 0139 06        		.byte	6
 6563 013a 0000      		.word	gs(UnitButton)
 6564 013c 00        		.byte	0
 6565 013d 06        		.byte	6
 6566 013e 0000      		.word	gs(Dummy)
 6567               	.global	KS_DiagLCD_Tab
 6570               	KS_DiagLCD_Tab:
 6571 0140 0D        		.byte	13
 6572 0141 08        		.byte	8
 6573 0142 0000      		.word	gs(DiagKeypad)
 6574 0144 00        		.byte	0
 6575 0145 07        		.byte	7
 6576 0146 0000      		.word	gs(Dummy)
 6577               	.global	KS_DiagKey_Tab
 6580               	KS_DiagKey_Tab:
 6581 0148 0A        		.byte	10
 6582 0149 08        		.byte	8
 6583 014a 0000      		.word	gs(DiagKeyCheck)
 6584 014c 01        		.byte	1
 6585 014d 08        		.byte	8
 6586 014e 0000      		.word	gs(DiagKeyCheck)
 6587 0150 02        		.byte	2
 6588 0151 08        		.byte	8
 6589 0152 0000      		.word	gs(DiagKeyCheck)
 6590 0154 03        		.byte	3
 6591 0155 08        		.byte	8
 6592 0156 0000      		.word	gs(DiagKeyCheck)
 6593 0158 04        		.byte	4
 6594 0159 08        		.byte	8
 6595 015a 0000      		.word	gs(DiagKeyCheck)
 6596 015c 05        		.byte	5
 6597 015d 08        		.byte	8
 6598 015e 0000      		.word	gs(DiagKeyCheck)
 6599 0160 06        		.byte	6
 6600 0161 08        		.byte	8
 6601 0162 0000      		.word	gs(DiagKeyCheck)
 6602 0164 07        		.byte	7
 6603 0165 08        		.byte	8
 6604 0166 0000      		.word	gs(DiagKeyCheck)
 6605 0168 08        		.byte	8
 6606 0169 08        		.byte	8
 6607 016a 0000      		.word	gs(DiagKeyCheck)
 6608 016c 09        		.byte	9
 6609 016d 08        		.byte	8
 6610 016e 0000      		.word	gs(DiagKeyCheck)
 6611 0170 0C        		.byte	12
 6612 0171 08        		.byte	8
 6613 0172 0000      		.word	gs(DiagKeyCheck)
 6614 0174 0B        		.byte	11
 6615 0175 08        		.byte	8
 6616 0176 0000      		.word	gs(DiagKeyCheck)
 6617 0178 0D        		.byte	13
 6618 0179 08        		.byte	8
 6619 017a 0000      		.word	gs(DiagKeyCheck)
 6620 017c 0E        		.byte	14
 6621 017d 08        		.byte	8
 6622 017e 0000      		.word	gs(DiagKeyCheck)
 6623 0180 0F        		.byte	15
 6624 0181 08        		.byte	8
 6625 0182 0000      		.word	gs(DiagKeyCheck)
 6626 0184 10        		.byte	16
 6627 0185 08        		.byte	8
 6628 0186 0000      		.word	gs(DiagKeyCheck)
 6629 0188 11        		.byte	17
 6630 0189 08        		.byte	8
 6631 018a 0000      		.word	gs(DiagKeyCheck)
 6632 018c 12        		.byte	18
 6633 018d 08        		.byte	8
 6634 018e 0000      		.word	gs(DiagKeyCheck)
 6635 0190 14        		.byte	20
 6636 0191 08        		.byte	8
 6637 0192 0000      		.word	gs(DiagKeyCheck)
 6638 0194 13        		.byte	19
 6639 0195 08        		.byte	8
 6640 0196 0000      		.word	gs(DiagKeyCheck)
 6641 0198 15        		.byte	21
 6642 0199 08        		.byte	8
 6643 019a 0000      		.word	gs(DiagKeyCheck)
 6644 019c 16        		.byte	22
 6645 019d 08        		.byte	8
 6646 019e 0000      		.word	gs(DiagKeyCheck)
 6647 01a0 17        		.byte	23
 6648 01a1 08        		.byte	8
 6649 01a2 0000      		.word	gs(DiagKeyCheck)
 6650 01a4 18        		.byte	24
 6651 01a5 09        		.byte	9
 6652 01a6 0000      		.word	gs(DiagEEPROM)
 6653 01a8 00        		.byte	0
 6654 01a9 08        		.byte	8
 6655 01aa 0000      		.word	gs(Dummy)
 6656               	.global	KS_DiagEEPROM_Tab
 6659               	KS_DiagEEPROM_Tab:
 6660 01ac 0D        		.byte	13
 6661 01ad 0A        		.byte	10
 6662 01ae 0000      		.word	gs(DiagDDS)
 6663 01b0 00        		.byte	0
 6664 01b1 09        		.byte	9
 6665 01b2 0000      		.word	gs(Dummy)
 6666               	.global	KS_DiagDDS_Tab
 6669               	KS_DiagDDS_Tab:
 6670 01b4 0D        		.byte	13
 6671 01b5 07        		.byte	7
 6672 01b6 0000      		.word	gs(DiagDisplay)
 6673 01b8 0A        		.byte	10
 6674 01b9 0A        		.byte	10
 6675 01ba 0000      		.word	gs(DiagDDS)
 6676 01bc 01        		.byte	1
 6677 01bd 0A        		.byte	10
 6678 01be 0000      		.word	gs(DiagDDS)
 6679 01c0 02        		.byte	2
 6680 01c1 0A        		.byte	10
 6681 01c2 0000      		.word	gs(DiagDDS)
 6682 01c4 03        		.byte	3
 6683 01c5 0A        		.byte	10
 6684 01c6 0000      		.word	gs(DiagDDS)
 6685 01c8 04        		.byte	4
 6686 01c9 0A        		.byte	10
 6687 01ca 0000      		.word	gs(DiagDDS)
 6688 01cc 05        		.byte	5
 6689 01cd 0A        		.byte	10
 6690 01ce 0000      		.word	gs(DiagDDS)
 6691 01d0 06        		.byte	6
 6692 01d1 0A        		.byte	10
 6693 01d2 0000      		.word	gs(DiagDDS)
 6694 01d4 09        		.byte	9
 6695 01d5 0A        		.byte	10
 6696 01d6 0000      		.word	gs(DiagDDS)
 6697 01d8 00        		.byte	0
 6698 01d9 0A        		.byte	10
 6699 01da 0000      		.word	gs(Dummy)
 6700               	.global	KS_ShowStep_Tab
 6703               	KS_ShowStep_Tab:
 6704 01dc 0D        		.byte	13
 6705 01dd 00        		.byte	0
 6706 01de 0000      		.word	gs(CW_Init)
 6707 01e0 0F        		.byte	15
 6708 01e1 0B        		.byte	11
 6709 01e2 0000      		.word	gs(ShowStep)
 6710 01e4 10        		.byte	16
 6711 01e5 0B        		.byte	11
 6712 01e6 0000      		.word	gs(ShowStep)
 6713 01e8 00        		.byte	0
 6714 01e9 0B        		.byte	11
 6715 01ea 0000      		.word	gs(Dummy)
 6716               	.global	KS_ShowDuty_Tab
 6719               	KS_ShowDuty_Tab:
 6720 01ec 0D        		.byte	13
 6721 01ed 00        		.byte	0
 6722 01ee 0000      		.word	gs(CW_Init)
 6723 01f0 0C        		.byte	12
 6724 01f1 0C        		.byte	12
 6725 01f2 0000      		.word	gs(SetDuty)
 6726 01f4 00        		.byte	0
 6727 01f5 0C        		.byte	12
 6728 01f6 0000      		.word	gs(Dummy)
 6729               	.global	CmdIndex
 6732               	CmdIndex:
 6733 01f8 0000      		.word	KS_CW_Tab
 6734 01fa 0000      		.word	KS_Sweep_Tab
 6735 01fc 0000      		.word	KS_ServoPos_Tab
 6736 01fe 0000      		.word	KS_ServoRun_Tab
 6737 0200 0000      		.word	KS_ServoParam_Tab
 6738 0202 0000      		.word	KS_ModeSel_Tab
 6739 0204 0000      		.word	KS_DigitInput_Tab
 6740 0206 0000      		.word	KS_DiagLCD_Tab
 6741 0208 0000      		.word	KS_DiagKey_Tab
 6742 020a 0000      		.word	KS_DiagEEPROM_Tab
 6743 020c 0000      		.word	KS_DiagDDS_Tab
 6744 020e 0000      		.word	KS_ShowStep_Tab
 6745 0210 0000      		.word	KS_ShowDuty_Tab
 6746               	.global	InitFuncTab
 6749               	InitFuncTab:
 6750 0212 0000      		.word	gs(CW_Init)
 6751 0214 0000      		.word	gs(SweepInit)
 6752 0216 0000      		.word	gs(ServoPosInit)
 6753 0218 0000      		.word	gs(ServoRunInit)
 6754               	.global	WaveName
 6757               	WaveName:
 6758 021a 5349 4E45 		.string	"SINE"
 6758      00
 6759 021f 00        		.skip 1,0
 6760 0220 2053 5152 		.string	" SQR"
 6760      00
 6761 0225 00        		.skip 1,0
 6762 0226 2054 5249 		.string	" TRI"
 6762      00
 6763 022b 00        		.skip 1,0
 6764 022c 524D 502B 		.string	"RMP+"
 6764      00
 6765 0231 00        		.skip 1,0
 6766 0232 524D 502D 		.string	"RMP-"
 6766      00
 6767 0237 00        		.skip 1,0
 6768 0238 5354 522B 		.string	"STR+"
 6768      00
 6769 023d 00        		.skip 1,0
 6770 023e 5354 522D 		.string	"STR-"
 6770      00
 6771 0243 00        		.skip 1,0
 6772 0244 5553 4552 		.string	"USER"
 6772      00
 6773 0249 00        		.skip 1,0
 6774               	.global	Unit_Symbols
 6777               	Unit_Symbols:
 6778 024a 487A 00   		.string	"Hz"
 6779 024d 0000      		.skip 2,0
 6780 024f 4B48 7A00 		.string	"KHz"
 6781 0253 00        		.skip 1,0
 6782 0254 5365 6300 		.string	"Sec"
 6783 0258 00        		.skip 1,0
 6784 0259 6D53 00   		.string	"mS"
 6785 025c 0000      		.skip 2,0
 6786 025e 5620 2000 		.string	"V  "
 6787 0262 00        		.skip 1,0
 6788 0263 6D56 2020 		.string	"mV  "
 6788      00
 6789 0268 7553 6563 		.string	"uSec"
 6789      00
 6790 026d 4465 6700 		.string	"Deg"
 6791 0271 00        		.skip 1,0
 6792               	.global	ModePrompt
 6795               	ModePrompt:
 6796 0272 5365 6C65 		.string	"Select Mode"
 6796      6374 204D 
 6796      6F64 6500 
 6797               	.global	ModeNames
 6800               	ModeNames:
 6801 027e 4357 00   		.string	"CW"
 6802 0281 0000 0000 		.skip 7,0
 6802      0000 00
 6803 0288 5377 6565 		.string	"Sweep"
 6803      7000 
 6804 028e 0000 0000 		.skip 4,0
 6805 0292 5365 7276 		.string	"Servo Pos"
 6805      6F20 506F 
 6805      7300 
 6806 029c 5365 7276 		.string	"Servo Run"
 6806      6F20 5275 
 6806      6E00 
 6807               	.global	ModeIndex
 6810               	ModeIndex:
 6811 02a6 312F 3400 		.string	"1/4"
 6812 02aa 00        		.skip 1,0
 6813 02ab 322F 3400 		.string	"2/4"
 6814 02af 00        		.skip 1,0
 6815 02b0 332F 3400 		.string	"3/4"
 6816 02b4 00        		.skip 1,0
 6817 02b5 342F 3400 		.string	"4/4"
 6818 02b9 00        		.skip 1,0
 6819               	.global	SweepParams
 6822               	SweepParams:
 6823 02ba 5374 6172 		.string	"Start:"
 6823      743A 00
 6824 02c1 5374 6F70 		.string	"Stop:"
 6824      3A00 
 6825 02c7 00        		.skip 1,0
 6826 02c8 5469 6D65 		.string	"Time:"
 6826      3A00 
 6827 02ce 00        		.skip 1,0
 6828 02cf 5473 7465 		.string	"Tstep:"
 6828      703A 00
 6829 02d6 416D 703A 		.string	"Amp:"
 6829      00
 6830 02db 0000      		.skip 2,0
 6831 02dd 4F66 733A 		.string	"Ofs:"
 6831      00
 6832 02e2 0000      		.skip 2,0
 6833               	.global	SweepParamUnit
 6836               	SweepParamUnit:
 6837 02e4 487A 00   		.string	"Hz"
 6838 02e7 487A 00   		.string	"Hz"
 6839 02ea 6D53 00   		.string	"mS"
 6840 02ed 6D53 00   		.string	"mS"
 6841               	.global	TswTitle
 6844               	TswTitle:
 6845 02f0 5473 7720 		.string	"Tsw Step:"
 6845      5374 6570 
 6845      3A00 
 6846               	.global	ServoPos
 6849               	ServoPos:
 6850 02fa 5365 7276 		.string	"Servo        Pos"
 6850      6F20 2020 
 6850      2020 2020 
 6850      2050 6F73 
 6850      00
 6851               	.global	ServoPW
 6854               	ServoPW:
 6855 030b 5057 3A00 		.string	"PW:"
 6856               	.global	ServoAmp
 6859               	ServoAmp:
 6860 030f 414D 503A 		.string	"AMP:"
 6860      00
 6861               	.global	ServoRun
 6864               	ServoRun:
 6865 0314 5365 7276 		.string	"Servo        Run"
 6865      6F20 2020 
 6865      2020 2020 
 6865      2052 756E 
 6865      00
 6866               	.global	ServoRunState
 6869               	ServoRunState:
 6870 0325 5265 6164 		.string	"Ready"
 6870      7900 
 6871 032b 0000      		.skip 2,0
 6872 032d 5275 6E6E 		.string	"Running"
 6872      696E 6700 
 6873 0335 486F 6C64 		.string	"Hold"
 6873      00
 6874 033a 0000 00   		.skip 3,0
 6875               	.global	SetFreqPeriodStep
 6878               	SetFreqPeriodStep:
 6879 033d 5365 7420 		.string	"Set F/T step"
 6879      462F 5420 
 6879      7374 6570 
 6879      00
 6880 034a 0000      		.skip 2,0
 6881               	.global	FreqStep
 6884               	FreqStep:
 6885 034c 4620 7374 		.string	"F step size:"
 6885      6570 2073 
 6885      697A 653A 
 6885      00
 6886 0359 0000      		.skip 2,0
 6887               	.global	TimeStep
 6890               	TimeStep:
 6891 035b 5420 7374 		.string	"T step size:"
 6891      6570 2073 
 6891      697A 653A 
 6891      00
 6892 0368 0000      		.skip 2,0
 6893               	.global	Duty
 6896               	Duty:
 6897 036a 4475 7479 		.string	"Duty (%)"
 6897      2028 2529 
 6897      00
 6898 0373 00        		.skip 1,0
 6899               	.global	ServoParamDefaultRestore
 6902               	ServoParamDefaultRestore:
 6903 0374 5B57 465D 		.string	"[WF] to restore"
 6903      2074 6F20 
 6903      7265 7374 
 6903      6F72 6500 
 6904 0384 00        		.skip 1,0
 6905               	.global	ServoParamNames
 6908               	ServoParamNames:
 6909 0385 5356 2E50 		.string	"SV.PWmin"
 6909      576D 696E 
 6909      00
 6910 038e 0000 00   		.skip 3,0
 6911 0391 5356 2E50 		.string	"SV.PWmax"
 6911      576D 6178 
 6911      00
 6912 039a 0000 00   		.skip 3,0
 6913 039d 5356 2E50 		.string	"SV.PWmid"
 6913      576D 6964 
 6913      00
 6914 03a6 0000 00   		.skip 3,0
 6915 03a9 5356 2E50 		.string	"SV.PWinc"
 6915      5769 6E63 
 6915      00
 6916 03b2 0000 00   		.skip 3,0
 6917 03b5 5356 2E52 		.string	"SV.RunStep"
 6917      756E 5374 
 6917      6570 00
 6918 03c0 00        		.skip 1,0
 6919 03c1 5356 2E52 		.string	"SV.RunRate"
 6919      756E 5261 
 6919      7465 00
 6920 03cc 00        		.skip 1,0
 6921 03cd 5356 2E43 		.string	"SV.Cycle"
 6921      7963 6C65 
 6921      00
 6922 03d6 0000 00   		.skip 3,0
 6923 03d9 5356 2E41 		.string	"SV.AMPmax"
 6923      4D50 6D61 
 6923      7800 
 6924 03e3 0000      		.skip 2,0
 6925 03e5 5356 2E44 		.string	"SV.Default"
 6925      6566 6175 
 6925      6C74 00
 6926 03f0 00        		.skip 1,0
 6927               	.global	ServoParamIndex
 6930               	ServoParamIndex:
 6931 03f1 312F 3900 		.string	"1/9"
 6932 03f5 00        		.skip 1,0
 6933 03f6 322F 3900 		.string	"2/9"
 6934 03fa 00        		.skip 1,0
 6935 03fb 332F 3900 		.string	"3/9"
 6936 03ff 00        		.skip 1,0
 6937 0400 342F 3900 		.string	"4/9"
 6938 0404 00        		.skip 1,0
 6939 0405 352F 3900 		.string	"5/9"
 6940 0409 00        		.skip 1,0
 6941 040a 362F 3900 		.string	"6/9"
 6942 040e 00        		.skip 1,0
 6943 040f 372F 3900 		.string	"7/9"
 6944 0413 00        		.skip 1,0
 6945 0414 382F 3900 		.string	"8/9"
 6946 0418 00        		.skip 1,0
 6947 0419 392F 3900 		.string	"9/9"
 6948 041d 00        		.skip 1,0
 6949               	.global	ServoParamUnits
 6952               	ServoParamUnits:
 6953 041e 7553 6563 		.string	"uSec"
 6953      00
 6954 0423 0000      		.skip 2,0
 6955 0425 7553 6563 		.string	"uSec"
 6955      00
 6956 042a 0000      		.skip 2,0
 6957 042c 7553 6563 		.string	"uSec"
 6957      00
 6958 0431 0000      		.skip 2,0
 6959 0433 7553 6563 		.string	"uSec"
 6959      00
 6960 0438 0000      		.skip 2,0
 6961 043a 7553 6563 		.string	"uSec"
 6961      00
 6962 043f 0000      		.skip 2,0
 6963 0441 532F 5374 		.string	"S/Step"
 6963      6570 00
 6964 0448 7553 6563 		.string	"uSec"
 6964      00
 6965 044d 0000      		.skip 2,0
 6966 044f 5600      		.string	"V"
 6967 0451 0000 0000 		.skip 5,0
 6967      00
 6968 0456 00        		.string	""
 6969 0457 0000 0000 		.skip 6,0
 6969      0000 
 6970               	.global	FocusLocTab
 6973               	FocusLocTab:
 6974 045d 00        		.byte	0
 6975 045e 10        		.byte	16
 6976 045f 19        		.byte	25
 6977               	.global	miniDDS_ROM
 6980               	miniDDS_ROM:
 6981 0460 00        		.byte	0
 6982 0461 E8        		.byte	-24
 6983 0462 03        		.byte	3
 6984 0463 00        		.byte	0
 6985 0464 00        		.byte	0
 6986 0465 00        		.byte	0
 6987 0466 00        		.byte	0
 6988 0467 88        		.byte	-120
 6989 0468 13        		.byte	19
 6990 0469 00        		.byte	0
 6991 046a 00        		.byte	0
 6992 046b 4C        		.byte	76
 6993 046c 1D        		.byte	29
 6994 046d 00        		.byte	0
 6995 046e 00        		.byte	0
 6996 046f 01        		.byte	1
 6997 0470 01        		.byte	1
 6998 0471 00        		.byte	0
 6999 0472 00        		.byte	0
 7000 0473 00        		.byte	0
 7001 0474 00        		.byte	0
 7002 0475 00        		.byte	0
 7003 0476 00        		.byte	0
 7004 0477 00        		.byte	0
 7005 0478 DC05      		.word	1500
 7006 047a 8813      		.word	5000
 7007 047c E803      		.word	1000
 7008 047e D007      		.word	2000
 7009 0480 DC05      		.word	1500
 7010 0482 6400      		.word	100
 7011 0484 6400      		.word	100
 7012 0486 6400      		.word	100
 7013 0488 204E      		.word	20000
 7014 048a 8813      		.word	5000
 7015 048c E8        		.byte	-24
 7016 048d 03        		.byte	3
 7017 048e 00        		.byte	0
 7018 048f 00        		.byte	0
 7019 0490 A0        		.byte	-96
 7020 0491 86        		.byte	-122
 7021 0492 01        		.byte	1
 7022 0493 00        		.byte	0
 7023 0494 88        		.byte	-120
 7024 0495 13        		.byte	19
 7025 0496 00        		.byte	0
 7026 0497 00        		.byte	0
 7027 0498 01        		.byte	1
 7028 0499 00        		.byte	0
 7029 049a 00        		.byte	0
 7030 049b 00        		.byte	0
 7031 049c 20        		.byte	32
 7032 049d 32        		.byte	50
 7033               	.global	Signature_EE1
 7034               		.section	.eeprom,"aw",@progbits
 7037               	Signature_EE1:
 7038 0000 FF        		.byte	-1
 7039               	.global	Signature_EE2
 7042               	Signature_EE2:
 7043 0001 FF        		.byte	-1
 7044               	.global	EEversion
 7047               	EEversion:
 7048 0002 FF        		.byte	-1
 7049               	.global	miniDDS_EE
 7052               	miniDDS_EE:
 7053 0003 0000 0000 		.skip 62,0
 7053      0000 0000 
 7053      0000 0000 
 7053      0000 0000 
 7053      0000 0000 
 7054               		.comm miniDDS,62,1
 7055               		.comm SysState,4,1
 7056               		.comm CurrFocus,1,1
 7057               		.comm CurrMode,1,1
 7058               		.comm TrigCtrl,1,1
 7059               		.comm NumInput,15,1
 7060               		.comm NumString,8,1
 7061               		.comm InputBuf,16,1
 7062               		.comm CurrParam,1,1
 7687               	.Letext0:
DEFINED SYMBOLS
                            *ABS*:00000000 FuncGen.c
C:\DOCUME~1\ADMINI~1\LOCALS~1\Temp/ccnFwCjP.s:2      *ABS*:0000003f __SREG__
C:\DOCUME~1\ADMINI~1\LOCALS~1\Temp/ccnFwCjP.s:3      *ABS*:0000003e __SP_H__
C:\DOCUME~1\ADMINI~1\LOCALS~1\Temp/ccnFwCjP.s:4      *ABS*:0000003d __SP_L__
C:\DOCUME~1\ADMINI~1\LOCALS~1\Temp/ccnFwCjP.s:5      *ABS*:00000034 __CCP__
C:\DOCUME~1\ADMINI~1\LOCALS~1\Temp/ccnFwCjP.s:6      *ABS*:00000000 __tmp_reg__
C:\DOCUME~1\ADMINI~1\LOCALS~1\Temp/ccnFwCjP.s:7      *ABS*:00000001 __zero_reg__
C:\DOCUME~1\ADMINI~1\LOCALS~1\Temp/ccnFwCjP.s:18     .text:00000000 CmdAnalysis
                            *COM*:00000004 SysState
C:\DOCUME~1\ADMINI~1\LOCALS~1\Temp/ccnFwCjP.s:207    .text:00000092 Dummy
C:\DOCUME~1\ADMINI~1\LOCALS~1\Temp/ccnFwCjP.s:91     .text:0000002e DoCmdProcessing
C:\DOCUME~1\ADMINI~1\LOCALS~1\Temp/ccnFwCjP.s:6732   .progmem.data:000001f8 CmdIndex
C:\DOCUME~1\ADMINI~1\LOCALS~1\Temp/ccnFwCjP.s:137    .text:0000005e ExitSVParam
                            *COM*:0000003e miniDDS
C:\DOCUME~1\ADMINI~1\LOCALS~1\Temp/ccnFwCjP.s:6749   .progmem.data:00000212 InitFuncTab
C:\DOCUME~1\ADMINI~1\LOCALS~1\Temp/ccnFwCjP.s:172    .text:00000078 EscapeMode
C:\DOCUME~1\ADMINI~1\LOCALS~1\Temp/ccnFwCjP.s:219    .text:00000094 NumInputSetup
                            *COM*:0000000f NumInput
                            *COM*:00000010 InputBuf
C:\DOCUME~1\ADMINI~1\LOCALS~1\Temp/ccnFwCjP.s:279    .text:000000e6 UnitButton
C:\DOCUME~1\ADMINI~1\LOCALS~1\Temp/ccnFwCjP.s:310    .text:0000010e ClearDisp
C:\DOCUME~1\ADMINI~1\LOCALS~1\Temp/ccnFwCjP.s:341    .text:00000126 CalWholePart
C:\DOCUME~1\ADMINI~1\LOCALS~1\Temp/ccnFwCjP.s:421    .text:00000196 CalValue
C:\DOCUME~1\ADMINI~1\LOCALS~1\Temp/ccnFwCjP.s:586    .text:0000027a ClearInputBuf
C:\DOCUME~1\ADMINI~1\LOCALS~1\Temp/ccnFwCjP.s:617    .text:0000029a DisplayInputBuf
C:\DOCUME~1\ADMINI~1\LOCALS~1\Temp/ccnFwCjP.s:694    .text:0000030a ToggleSign
C:\DOCUME~1\ADMINI~1\LOCALS~1\Temp/ccnFwCjP.s:720    .text:00000322 Digit
C:\DOCUME~1\ADMINI~1\LOCALS~1\Temp/ccnFwCjP.s:780    .text:00000378 SetIncrement
C:\DOCUME~1\ADMINI~1\LOCALS~1\Temp/ccnFwCjP.s:6878   .progmem.data:0000033d SetFreqPeriodStep
C:\DOCUME~1\ADMINI~1\LOCALS~1\Temp/ccnFwCjP.s:4341   .text:00001734 IncInputHandle
C:\DOCUME~1\ADMINI~1\LOCALS~1\Temp/ccnFwCjP.s:863    .text:000003ce ShowMode
C:\DOCUME~1\ADMINI~1\LOCALS~1\Temp/ccnFwCjP.s:6795   .progmem.data:00000272 ModePrompt
                            *COM*:00000001 CurrMode
C:\DOCUME~1\ADMINI~1\LOCALS~1\Temp/ccnFwCjP.s:6800   .progmem.data:0000027e ModeNames
C:\DOCUME~1\ADMINI~1\LOCALS~1\Temp/ccnFwCjP.s:6810   .progmem.data:000002a6 ModeIndex
C:\DOCUME~1\ADMINI~1\LOCALS~1\Temp/ccnFwCjP.s:1031   .text:0000047a ChangeMode
C:\DOCUME~1\ADMINI~1\LOCALS~1\Temp/ccnFwCjP.s:1047   .text:00000484 ShowType
C:\DOCUME~1\ADMINI~1\LOCALS~1\Temp/ccnFwCjP.s:6757   .progmem.data:0000021a WaveName
C:\DOCUME~1\ADMINI~1\LOCALS~1\Temp/ccnFwCjP.s:1100   .text:000004b0 ShowFocus
                            *COM*:00000001 CurrFocus
C:\DOCUME~1\ADMINI~1\LOCALS~1\Temp/ccnFwCjP.s:6973   .progmem.data:0000045d FocusLocTab
                            *COM*:00000001 TrigCtrl
C:\DOCUME~1\ADMINI~1\LOCALS~1\Temp/ccnFwCjP.s:1147   .text:000004e6 SetOfs
C:\DOCUME~1\ADMINI~1\LOCALS~1\Temp/ccnFwCjP.s:4428   .text:000017c2 OfsInputHandle
C:\DOCUME~1\ADMINI~1\LOCALS~1\Temp/ccnFwCjP.s:1177   .text:0000050e SetAmp
C:\DOCUME~1\ADMINI~1\LOCALS~1\Temp/ccnFwCjP.s:3737   .text:000013a6 AmpInputHandle
C:\DOCUME~1\ADMINI~1\LOCALS~1\Temp/ccnFwCjP.s:1207   .text:00000536 SetFreqCW
C:\DOCUME~1\ADMINI~1\LOCALS~1\Temp/ccnFwCjP.s:2643   .text:00000d66 FreqInputHandle
C:\DOCUME~1\ADMINI~1\LOCALS~1\Temp/ccnFwCjP.s:1251   .text:00000574 CalDeltaPhase
C:\DOCUME~1\ADMINI~1\LOCALS~1\Temp/ccnFwCjP.s:1318   .text:000005e0 PutStr_ROM
C:\DOCUME~1\ADMINI~1\LOCALS~1\Temp/ccnFwCjP.s:1359   .text:000005fc FillDisp
C:\DOCUME~1\ADMINI~1\LOCALS~1\Temp/ccnFwCjP.s:1393   .text:0000061a PutFreq
C:\DOCUME~1\ADMINI~1\LOCALS~1\Temp/ccnFwCjP.s:1434   .text:0000064a SaveSetting
C:\DOCUME~1\ADMINI~1\LOCALS~1\Temp/ccnFwCjP.s:7052   .eeprom:00000003 miniDDS_EE
C:\DOCUME~1\ADMINI~1\LOCALS~1\Temp/ccnFwCjP.s:1468   .text:00000672 DispWholeNum
C:\DOCUME~1\ADMINI~1\LOCALS~1\Temp/ccnFwCjP.s:1599   .text:00000714 ShowStep
C:\DOCUME~1\ADMINI~1\LOCALS~1\Temp/ccnFwCjP.s:6884   .progmem.data:0000034c FreqStep
C:\DOCUME~1\ADMINI~1\LOCALS~1\Temp/ccnFwCjP.s:6890   .progmem.data:0000035b TimeStep
C:\DOCUME~1\ADMINI~1\LOCALS~1\Temp/ccnFwCjP.s:1780   .text:00000802 SendServoRun
C:\DOCUME~1\ADMINI~1\LOCALS~1\Temp/ccnFwCjP.s:1827   .text:0000086a ShowServoRun
C:\DOCUME~1\ADMINI~1\LOCALS~1\Temp/ccnFwCjP.s:6864   .progmem.data:00000314 ServoRun
C:\DOCUME~1\ADMINI~1\LOCALS~1\Temp/ccnFwCjP.s:6869   .progmem.data:00000325 ServoRunState
C:\DOCUME~1\ADMINI~1\LOCALS~1\Temp/ccnFwCjP.s:1948   .text:000008de SendServoPos
C:\DOCUME~1\ADMINI~1\LOCALS~1\Temp/ccnFwCjP.s:1979   .text:00000912 SendSweep
C:\DOCUME~1\ADMINI~1\LOCALS~1\Temp/ccnFwCjP.s:2162   .text:00000a82 SendDDS
C:\DOCUME~1\ADMINI~1\LOCALS~1\Temp/ccnFwCjP.s:2295   .text:00000b80 ShowDuty
C:\DOCUME~1\ADMINI~1\LOCALS~1\Temp/ccnFwCjP.s:6896   .progmem.data:0000036a Duty
C:\DOCUME~1\ADMINI~1\LOCALS~1\Temp/ccnFwCjP.s:2407   .text:00000c10 DutyInputHandle
C:\DOCUME~1\ADMINI~1\LOCALS~1\Temp/ccnFwCjP.s:2458   .text:00000c6a SetDuty
C:\DOCUME~1\ADMINI~1\LOCALS~1\Temp/ccnFwCjP.s:2481   .text:00000c82 ShowFreqPeroid
C:\DOCUME~1\ADMINI~1\LOCALS~1\Temp/ccnFwCjP.s:6777   .progmem.data:0000024a Unit_Symbols
C:\DOCUME~1\ADMINI~1\LOCALS~1\Temp/ccnFwCjP.s:2783   .text:00000e46 LoadUserWaveform
C:\DOCUME~1\ADMINI~1\LOCALS~1\Temp/ccnFwCjP.s:2935   .text:00000f2e ShowSVParam
                            *COM*:00000001 CurrParam
C:\DOCUME~1\ADMINI~1\LOCALS~1\Temp/ccnFwCjP.s:6908   .progmem.data:00000385 ServoParamNames
C:\DOCUME~1\ADMINI~1\LOCALS~1\Temp/ccnFwCjP.s:6930   .progmem.data:000003f1 ServoParamIndex
C:\DOCUME~1\ADMINI~1\LOCALS~1\Temp/ccnFwCjP.s:6952   .progmem.data:0000041e ServoParamUnits
                            *COM*:00000008 NumString
C:\DOCUME~1\ADMINI~1\LOCALS~1\Temp/ccnFwCjP.s:6902   .progmem.data:00000374 ServoParamDefaultRestore
C:\DOCUME~1\ADMINI~1\LOCALS~1\Temp/ccnFwCjP.s:3266   .text:000010d0 ServoParamInputHandle
C:\DOCUME~1\ADMINI~1\LOCALS~1\Temp/ccnFwCjP.s:3335   .text:0000113c ShowPW
C:\DOCUME~1\ADMINI~1\LOCALS~1\Temp/ccnFwCjP.s:6849   .progmem.data:000002fa ServoPos
C:\DOCUME~1\ADMINI~1\LOCALS~1\Temp/ccnFwCjP.s:6854   .progmem.data:0000030b ServoPW
C:\DOCUME~1\ADMINI~1\LOCALS~1\Temp/ccnFwCjP.s:3545   .text:0000125a PWInputHandle
C:\DOCUME~1\ADMINI~1\LOCALS~1\Temp/ccnFwCjP.s:3584   .text:00001290 SetPW
C:\DOCUME~1\ADMINI~1\LOCALS~1\Temp/ccnFwCjP.s:3614   .text:000012b8 ShowAmp
C:\DOCUME~1\ADMINI~1\LOCALS~1\Temp/ccnFwCjP.s:3792   .text:00001404 AppInit
C:\DOCUME~1\ADMINI~1\LOCALS~1\Temp/ccnFwCjP.s:7037   .eeprom:00000000 Signature_EE1
C:\DOCUME~1\ADMINI~1\LOCALS~1\Temp/ccnFwCjP.s:7042   .eeprom:00000001 Signature_EE2
C:\DOCUME~1\ADMINI~1\LOCALS~1\Temp/ccnFwCjP.s:7047   .eeprom:00000002 EEversion
C:\DOCUME~1\ADMINI~1\LOCALS~1\Temp/ccnFwCjP.s:6980   .progmem.data:00000460 miniDDS_ROM
C:\DOCUME~1\ADMINI~1\LOCALS~1\Temp/ccnFwCjP.s:3950   .text:000014de ShowServoAmp
C:\DOCUME~1\ADMINI~1\LOCALS~1\Temp/ccnFwCjP.s:6859   .progmem.data:0000030f ServoAmp
C:\DOCUME~1\ADMINI~1\LOCALS~1\Temp/ccnFwCjP.s:4168   .text:00001624 ServoAmpInputHandle
C:\DOCUME~1\ADMINI~1\LOCALS~1\Temp/ccnFwCjP.s:4205   .text:00001658 ShowOfs
C:\DOCUME~1\ADMINI~1\LOCALS~1\Temp/ccnFwCjP.s:4543   .text:0000187c CW_Init
C:\DOCUME~1\ADMINI~1\LOCALS~1\Temp/ccnFwCjP.s:4598   .text:000018be ShowSweep
C:\DOCUME~1\ADMINI~1\LOCALS~1\Temp/ccnFwCjP.s:6822   .progmem.data:000002ba SweepParams
C:\DOCUME~1\ADMINI~1\LOCALS~1\Temp/ccnFwCjP.s:6836   .progmem.data:000002e4 SweepParamUnit
C:\DOCUME~1\ADMINI~1\LOCALS~1\Temp/ccnFwCjP.s:4842   .text:000019fa ToggleSweepDir
C:\DOCUME~1\ADMINI~1\LOCALS~1\Temp/ccnFwCjP.s:4877   .text:00001a28 ToggleTrigCtrl
C:\DOCUME~1\ADMINI~1\LOCALS~1\Temp/ccnFwCjP.s:4922   .text:00001a62 SweepParamInputHandle
C:\DOCUME~1\ADMINI~1\LOCALS~1\Temp/ccnFwCjP.s:5107   .text:00001b7a Dec
C:\DOCUME~1\ADMINI~1\LOCALS~1\Temp/ccnFwCjP.s:5349   .text:00001d6c Inc
C:\DOCUME~1\ADMINI~1\LOCALS~1\Temp/ccnFwCjP.s:5600   .text:00001f7c SetSweepAmp
C:\DOCUME~1\ADMINI~1\LOCALS~1\Temp/ccnFwCjP.s:5630   .text:00001fa4 QuickSweepParam
C:\DOCUME~1\ADMINI~1\LOCALS~1\Temp/ccnFwCjP.s:5715   .text:0000200c SetSweepParam
C:\DOCUME~1\ADMINI~1\LOCALS~1\Temp/ccnFwCjP.s:5790   .text:0000205e FreqKey
C:\DOCUME~1\ADMINI~1\LOCALS~1\Temp/ccnFwCjP.s:5830   .text:0000209a SweepInit
C:\DOCUME~1\ADMINI~1\LOCALS~1\Temp/ccnFwCjP.s:5877   .text:000020cc ServoRunInit
C:\DOCUME~1\ADMINI~1\LOCALS~1\Temp/ccnFwCjP.s:5927   .text:00002126 ServoPosInit
C:\DOCUME~1\ADMINI~1\LOCALS~1\Temp/ccnFwCjP.s:5978   .text:00002182 TYPE
C:\DOCUME~1\ADMINI~1\LOCALS~1\Temp/ccnFwCjP.s:6029   .text:000021d0 CAN
C:\DOCUME~1\ADMINI~1\LOCALS~1\Temp/ccnFwCjP.s:6085   .text:00002228 StartStop
C:\DOCUME~1\ADMINI~1\LOCALS~1\Temp/ccnFwCjP.s:6113   .text:00002244 SetSVAmp
C:\DOCUME~1\ADMINI~1\LOCALS~1\Temp/ccnFwCjP.s:6145   .text:00002270 SetSweepOfs
C:\DOCUME~1\ADMINI~1\LOCALS~1\Temp/ccnFwCjP.s:6177   .text:0000229c SelectMode
C:\DOCUME~1\ADMINI~1\LOCALS~1\Temp/ccnFwCjP.s:6219   .text:000022c6 SetSVParam
C:\DOCUME~1\ADMINI~1\LOCALS~1\Temp/ccnFwCjP.s:6242   .text:000022de ChangeSVParam
C:\DOCUME~1\ADMINI~1\LOCALS~1\Temp/ccnFwCjP.s:6260   .text:000022ec SVParamDefault
C:\DOCUME~1\ADMINI~1\LOCALS~1\Temp/ccnFwCjP.s:6310   .progmem.data:00000000 KS_CW_Tab
C:\DOCUME~1\ADMINI~1\LOCALS~1\Temp/ccnFwCjP.s:6383   .progmem.data:0000005c KS_Sweep_Tab
C:\DOCUME~1\ADMINI~1\LOCALS~1\Temp/ccnFwCjP.s:6429   .progmem.data:00000094 KS_ServoPos_Tab
C:\DOCUME~1\ADMINI~1\LOCALS~1\Temp/ccnFwCjP.s:6455   .progmem.data:000000bc KS_ServoRun_Tab
C:\DOCUME~1\ADMINI~1\LOCALS~1\Temp/ccnFwCjP.s:6471   .progmem.data:000000cc KS_ServoParam_Tab
C:\DOCUME~1\ADMINI~1\LOCALS~1\Temp/ccnFwCjP.s:6496   .progmem.data:000000e8 KS_ModeSel_Tab
C:\DOCUME~1\ADMINI~1\LOCALS~1\Temp/ccnFwCjP.s:6515   .progmem.data:000000fc KS_DigitInput_Tab
C:\DOCUME~1\ADMINI~1\LOCALS~1\Temp/ccnFwCjP.s:6570   .progmem.data:00000140 KS_DiagLCD_Tab
C:\DOCUME~1\ADMINI~1\LOCALS~1\Temp/ccnFwCjP.s:6580   .progmem.data:00000148 KS_DiagKey_Tab
C:\DOCUME~1\ADMINI~1\LOCALS~1\Temp/ccnFwCjP.s:6659   .progmem.data:000001ac KS_DiagEEPROM_Tab
C:\DOCUME~1\ADMINI~1\LOCALS~1\Temp/ccnFwCjP.s:6669   .progmem.data:000001b4 KS_DiagDDS_Tab
C:\DOCUME~1\ADMINI~1\LOCALS~1\Temp/ccnFwCjP.s:6703   .progmem.data:000001dc KS_ShowStep_Tab
C:\DOCUME~1\ADMINI~1\LOCALS~1\Temp/ccnFwCjP.s:6719   .progmem.data:000001ec KS_ShowDuty_Tab
C:\DOCUME~1\ADMINI~1\LOCALS~1\Temp/ccnFwCjP.s:6844   .progmem.data:000002f0 TswTitle

UNDEFINED SYMBOLS
KeyCode
KeyCodeBuf
DispBuf
__mulsi3
Flags
KeyParam
__floatunsisf
__mulsf3
__divsf3
__fixunssfsi
EE_Write
Strbuf
BinToDec32
SendBuf
__udivmodsi4
__floatsisf
__fixsfsi
__udivmodhi4
EE_Read
Delay
GTimer
RecvByte
BinToStr
SetDigitalPot
KFlags
PrevWiperPos
UpdateOfs
UpdateLCD
PutStr_ROM_coded
u0putc
DiagDisplay
DiagKeypad
DiagKeyCheck
DiagEEPROM
DiagDDS
__do_clear_bss
